
build/smipsv2_blez.S/a.out:     file format elf32-bigmips

Disassembly of section .text:

00001000 <__start>:
    1000:	27bdffe8 	addiu $sp,$sp,-24
    1004:	afbf0010 	sw $ra,16($sp)
    1008:	0c00042c 	jal 10b0 <main>
    100c:	4082a800 	mtc0 $v0,$21
    1010:	08000404 	j 1010 <__start+10>
    1014:	00000000 	nop
    1018:	00000000 	nop
    101c:	00000000 	nop

00001020 <printInt>:
    1020:	40849000 	mtc0 $a0,$18
    1024:	03e00008 	jr $ra
    1028:	00000000 	nop

0000102c <printChar>:
    102c:	40849800 	mtc0 $a0,$19
    1030:	03e00008 	jr $ra
    1034:	00000000 	nop

00001038 <printStr>:
    1038:	27bdffe0 	addiu $sp,$sp,-32
    103c:	afb00010 	sw $s0,16($sp)
    1040:	00808021 	move $s0,$a0
    1044:	afb20018 	sw $s2,24($sp)
    1048:	24120018 	li $s2,24
    104c:	afb10014 	sw $s1,20($sp)
    1050:	241100ff 	li $s1,255
    1054:	afbf001c 	sw $ra,28($sp)
    1058:	8e020000 	lw $v0,0($s0)
    105c:	32030003 	andi $v1,$s0,0x3
    1060:	000318c0 	sll $v1,$v1,0x3
    1064:	02431823 	subu $v1,$s2,$v1
    1068:	00712004 	sllv $a0,$s1,$v1
    106c:	00441024 	and $v0,$v0,$a0
    1070:	00622006 	srlv $a0,$v0,$v1
    1074:	10800003 	beqz $a0,1084 <printStr+4c>
    1078:	0c00040b 	jal 102c <printChar>
    107c:	26100001 	addiu $s0,$s0,1
    1080:	08000416 	j 1058 <printStr+20>
    1084:	8fbf001c 	lw $ra,28($sp)
    1088:	8fb20018 	lw $s2,24($sp)
    108c:	8fb10014 	lw $s1,20($sp)
    1090:	8fb00010 	lw $s0,16($sp)
    1094:	27bd0020 	addiu $sp,$sp,32
    1098:	03e00008 	jr $ra
    109c:	00000000 	nop

000010a0 <getTime>:
    10a0:	40025000 	mfc0 $v0,$10
    10a4:	03e00008 	jr $ra

000010a8 <getInsts>:
    10a8:	40025800 	mfc0 $v0,$11
    10ac:	03e00008 	jr $ra

000010b0 <main>:
    10b0:	241e0002 	li $s8,2
    10b4:	24020000 	li $v0,0
    10b8:	18400002 	blez $v0,10c4 <main+14>
    10bc:	141e003a 	bne $zero,$s8,11a8 <fail>
    10c0:	141e0002 	bne $zero,$s8,10cc <test_3>
    10c4:	1840fffe 	blez $v0,10c0 <main+10>
    10c8:	141e0037 	bne $zero,$s8,11a8 <fail>

000010cc <test_3>:
    10cc:	241e0003 	li $s8,3
    10d0:	2402ffff 	li $v0,-1
    10d4:	18400002 	blez $v0,10e0 <test_3+14>
    10d8:	141e0033 	bne $zero,$s8,11a8 <fail>
    10dc:	141e0002 	bne $zero,$s8,10e8 <test_4>
    10e0:	1840fffe 	blez $v0,10dc <test_3+10>
    10e4:	141e0030 	bne $zero,$s8,11a8 <fail>

000010e8 <test_4>:
    10e8:	241e0004 	li $s8,4
    10ec:	24020001 	li $v0,1
    10f0:	18400001 	blez $v0,10f8 <test_4+10>
    10f4:	141e0001 	bne $zero,$s8,10fc <test_4+14>
    10f8:	141e002b 	bne $zero,$s8,11a8 <fail>
    10fc:	1840fffe 	blez $v0,10f8 <test_4+10>

00001100 <test_5>:
    1100:	241e0005 	li $s8,5
    1104:	2402000a 	li $v0,10
    1108:	18400001 	blez $v0,1110 <test_5+10>
    110c:	141e0001 	bne $zero,$s8,1114 <test_5+14>
    1110:	141e0025 	bne $zero,$s8,11a8 <fail>
    1114:	1840fffe 	blez $v0,1110 <test_5+10>

00001118 <test_6>:
    1118:	241e0006 	li $s8,6
    111c:	24050000 	li $a1,0
    1120:	24020001 	li $v0,1
    1124:	18400020 	blez $v0,11a8 <fail>
    1128:	24a50001 	addiu $a1,$a1,1
    112c:	24060002 	li $a2,2
    1130:	14a6fffb 	bne $a1,$a2,1120 <test_6+8>

00001134 <test_7>:
    1134:	241e0007 	li $s8,7
    1138:	24050000 	li $a1,0
    113c:	24020001 	li $v0,1
    1140:	00000000 	nop
    1144:	18400018 	blez $v0,11a8 <fail>
    1148:	24a50001 	addiu $a1,$a1,1
    114c:	24060002 	li $a2,2
    1150:	14a6fffa 	bne $a1,$a2,113c <test_7+8>

00001154 <test_8>:
    1154:	241e0008 	li $s8,8
    1158:	24050000 	li $a1,0
    115c:	24020001 	li $v0,1
    1160:	00000000 	nop
    1164:	00000000 	nop
    1168:	1840000f 	blez $v0,11a8 <fail>
    116c:	24a50001 	addiu $a1,$a1,1
    1170:	24060002 	li $a2,2
    1174:	14a6fff9 	bne $a1,$a2,115c <test_8+8>

00001178 <test_9>:
    1178:	24020001 	li $v0,1
    117c:	18000004 	blez $zero,1190 <test_9+18>
    1180:	24420001 	addiu $v0,$v0,1
    1184:	24420001 	addiu $v0,$v0,1
    1188:	24420001 	addiu $v0,$v0,1
    118c:	24420001 	addiu $v0,$v0,1
    1190:	24420001 	addiu $v0,$v0,1
    1194:	24420001 	addiu $v0,$v0,1
    1198:	241d0003 	li $sp,3
    119c:	241e0009 	li $s8,9
    11a0:	145d0001 	bne $v0,$sp,11a8 <fail>
    11a4:	141e0003 	bne $zero,$s8,11b4 <pass>

000011a8 <fail>:
    11a8:	409ea800 	mtc0 $s8,$21
    11ac:	1000ffff 	b 11ac <fail+4>
    11b0:	00000000 	nop

000011b4 <pass>:
    11b4:	4080a800 	mtc0 $zero,$21
    11b8:	1000ffff 	b 11b8 <pass+4>
    11bc:	00000000 	nop
Disassembly of section .aibpointers: