
build/smipsv2_srlv.S/a.out:     file format elf32-bigmips

Disassembly of section .text:

00001000 <__start>:
    1000:	27bdffe8 	addiu $sp,$sp,-24
    1004:	afbf0010 	sw $ra,16($sp)
    1008:	0c00042c 	jal 10b0 <main>
    100c:	4082a800 	mtc0 $v0,$21
    1010:	08000404 	j 1010 <__start+10>
    1014:	00000000 	nop
    1018:	00000000 	nop
    101c:	00000000 	nop

00001020 <printInt>:
    1020:	40849000 	mtc0 $a0,$18
    1024:	03e00008 	jr $ra
    1028:	00000000 	nop

0000102c <printChar>:
    102c:	40849800 	mtc0 $a0,$19
    1030:	03e00008 	jr $ra
    1034:	00000000 	nop

00001038 <printStr>:
    1038:	27bdffe0 	addiu $sp,$sp,-32
    103c:	afb00010 	sw $s0,16($sp)
    1040:	00808021 	move $s0,$a0
    1044:	afb20018 	sw $s2,24($sp)
    1048:	24120018 	li $s2,24
    104c:	afb10014 	sw $s1,20($sp)
    1050:	241100ff 	li $s1,255
    1054:	afbf001c 	sw $ra,28($sp)
    1058:	8e020000 	lw $v0,0($s0)
    105c:	32030003 	andi $v1,$s0,0x3
    1060:	000318c0 	sll $v1,$v1,0x3
    1064:	02431823 	subu $v1,$s2,$v1
    1068:	00712004 	sllv $a0,$s1,$v1
    106c:	00441024 	and $v0,$v0,$a0
    1070:	00622006 	srlv $a0,$v0,$v1
    1074:	10800003 	beqz $a0,1084 <printStr+4c>
    1078:	0c00040b 	jal 102c <printChar>
    107c:	26100001 	addiu $s0,$s0,1
    1080:	08000416 	j 1058 <printStr+20>
    1084:	8fbf001c 	lw $ra,28($sp)
    1088:	8fb20018 	lw $s2,24($sp)
    108c:	8fb10014 	lw $s1,20($sp)
    1090:	8fb00010 	lw $s0,16($sp)
    1094:	27bd0020 	addiu $sp,$sp,32
    1098:	03e00008 	jr $ra
    109c:	00000000 	nop

000010a0 <getTime>:
    10a0:	40025000 	mfc0 $v0,$10
    10a4:	03e00008 	jr $ra

000010a8 <getInsts>:
    10a8:	40025800 	mfc0 $v0,$11
    10ac:	03e00008 	jr $ra

000010b0 <main>:
    10b0:	3c028000 	lui $v0,0x8000
    10b4:	24030000 	li $v1,0
    10b8:	00622006 	srlv $a0,$v0,$v1
    10bc:	3c1d8000 	lui $sp,0x8000
    10c0:	241e0002 	li $s8,2
    10c4:	149d0144 	bne $a0,$sp,15d8 <fail>

000010c8 <test_3>:
    10c8:	3c028000 	lui $v0,0x8000
    10cc:	24030001 	li $v1,1
    10d0:	00622006 	srlv $a0,$v0,$v1
    10d4:	3c1d4000 	lui $sp,0x4000
    10d8:	241e0003 	li $s8,3
    10dc:	149d013e 	bne $a0,$sp,15d8 <fail>

000010e0 <test_4>:
    10e0:	3c028000 	lui $v0,0x8000
    10e4:	24030007 	li $v1,7
    10e8:	00622006 	srlv $a0,$v0,$v1
    10ec:	3c1d0100 	lui $sp,0x100
    10f0:	241e0004 	li $s8,4
    10f4:	149d0138 	bne $a0,$sp,15d8 <fail>

000010f8 <test_5>:
    10f8:	3c028000 	lui $v0,0x8000
    10fc:	2403000e 	li $v1,14
    1100:	00622006 	srlv $a0,$v0,$v1
    1104:	3c1d0002 	lui $sp,0x2
    1108:	241e0005 	li $s8,5
    110c:	149d0132 	bne $a0,$sp,15d8 <fail>

00001110 <test_6>:
    1110:	3c028000 	lui $v0,0x8000
    1114:	34420001 	ori $v0,$v0,0x1
    1118:	2403001f 	li $v1,31
    111c:	00622006 	srlv $a0,$v0,$v1
    1120:	241d0001 	li $sp,1
    1124:	241e0006 	li $s8,6
    1128:	149d012b 	bne $a0,$sp,15d8 <fail>

0000112c <test_7>:
    112c:	2402ffff 	li $v0,-1
    1130:	24030000 	li $v1,0
    1134:	00622006 	srlv $a0,$v0,$v1
    1138:	241dffff 	li $sp,-1
    113c:	241e0007 	li $s8,7
    1140:	149d0125 	bne $a0,$sp,15d8 <fail>

00001144 <test_8>:
    1144:	2402ffff 	li $v0,-1
    1148:	24030001 	li $v1,1
    114c:	00622006 	srlv $a0,$v0,$v1
    1150:	3c1d7fff 	lui $sp,0x7fff
    1154:	37bdffff 	ori $sp,$sp,0xffff
    1158:	241e0008 	li $s8,8
    115c:	149d011e 	bne $a0,$sp,15d8 <fail>

00001160 <test_9>:
    1160:	2402ffff 	li $v0,-1
    1164:	24030007 	li $v1,7
    1168:	00622006 	srlv $a0,$v0,$v1
    116c:	3c1d01ff 	lui $sp,0x1ff
    1170:	37bdffff 	ori $sp,$sp,0xffff
    1174:	241e0009 	li $s8,9
    1178:	149d0117 	bne $a0,$sp,15d8 <fail>

0000117c <test_10>:
    117c:	2402ffff 	li $v0,-1
    1180:	2403000e 	li $v1,14
    1184:	00622006 	srlv $a0,$v0,$v1
    1188:	3c1d0003 	lui $sp,0x3
    118c:	37bdffff 	ori $sp,$sp,0xffff
    1190:	241e000a 	li $s8,10
    1194:	149d0110 	bne $a0,$sp,15d8 <fail>

00001198 <test_11>:
    1198:	2402ffff 	li $v0,-1
    119c:	2403001f 	li $v1,31
    11a0:	00622006 	srlv $a0,$v0,$v1
    11a4:	241d0001 	li $sp,1
    11a8:	241e000b 	li $s8,11
    11ac:	149d010a 	bne $a0,$sp,15d8 <fail>

000011b0 <test_12>:
    11b0:	3c022121 	lui $v0,0x2121
    11b4:	34422121 	ori $v0,$v0,0x2121
    11b8:	24030000 	li $v1,0
    11bc:	00622006 	srlv $a0,$v0,$v1
    11c0:	3c1d2121 	lui $sp,0x2121
    11c4:	37bd2121 	ori $sp,$sp,0x2121
    11c8:	241e000c 	li $s8,12
    11cc:	149d0102 	bne $a0,$sp,15d8 <fail>

000011d0 <test_13>:
    11d0:	3c022121 	lui $v0,0x2121
    11d4:	34422121 	ori $v0,$v0,0x2121
    11d8:	24030001 	li $v1,1
    11dc:	00622006 	srlv $a0,$v0,$v1
    11e0:	3c1d1090 	lui $sp,0x1090
    11e4:	37bd9090 	ori $sp,$sp,0x9090
    11e8:	241e000d 	li $s8,13
    11ec:	149d00fa 	bne $a0,$sp,15d8 <fail>

000011f0 <test_14>:
    11f0:	3c022121 	lui $v0,0x2121
    11f4:	34422121 	ori $v0,$v0,0x2121
    11f8:	24030007 	li $v1,7
    11fc:	00622006 	srlv $a0,$v0,$v1
    1200:	3c1d0042 	lui $sp,0x42
    1204:	37bd4242 	ori $sp,$sp,0x4242
    1208:	241e000e 	li $s8,14
    120c:	149d00f2 	bne $a0,$sp,15d8 <fail>

00001210 <test_15>:
    1210:	3c022121 	lui $v0,0x2121
    1214:	34422121 	ori $v0,$v0,0x2121
    1218:	2403000e 	li $v1,14
    121c:	00622006 	srlv $a0,$v0,$v1
    1220:	341d8484 	li $sp,0x8484
    1224:	241e000f 	li $s8,15
    1228:	149d00eb 	bne $a0,$sp,15d8 <fail>

0000122c <test_16>:
    122c:	3c022121 	lui $v0,0x2121
    1230:	34422121 	ori $v0,$v0,0x2121
    1234:	2403001f 	li $v1,31
    1238:	00622006 	srlv $a0,$v0,$v1
    123c:	241d0000 	li $sp,0
    1240:	241e0010 	li $s8,16
    1244:	149d00e4 	bne $a0,$sp,15d8 <fail>

00001248 <test_17>:
    1248:	3c022121 	lui $v0,0x2121
    124c:	34422121 	ori $v0,$v0,0x2121
    1250:	2403ffe0 	li $v1,-32
    1254:	00622006 	srlv $a0,$v0,$v1
    1258:	3c1d2121 	lui $sp,0x2121
    125c:	37bd2121 	ori $sp,$sp,0x2121
    1260:	241e0011 	li $s8,17
    1264:	149d00dc 	bne $a0,$sp,15d8 <fail>

00001268 <test_18>:
    1268:	3c022121 	lui $v0,0x2121
    126c:	34422121 	ori $v0,$v0,0x2121
    1270:	2403ffe1 	li $v1,-31
    1274:	00622006 	srlv $a0,$v0,$v1
    1278:	3c1d1090 	lui $sp,0x1090
    127c:	37bd9090 	ori $sp,$sp,0x9090
    1280:	241e0012 	li $s8,18
    1284:	149d00d4 	bne $a0,$sp,15d8 <fail>

00001288 <test_19>:
    1288:	3c022121 	lui $v0,0x2121
    128c:	34422121 	ori $v0,$v0,0x2121
    1290:	2403ffe7 	li $v1,-25
    1294:	00622006 	srlv $a0,$v0,$v1
    1298:	3c1d0042 	lui $sp,0x42
    129c:	37bd4242 	ori $sp,$sp,0x4242
    12a0:	241e0013 	li $s8,19
    12a4:	149d00cc 	bne $a0,$sp,15d8 <fail>

000012a8 <test_20>:
    12a8:	3c022121 	lui $v0,0x2121
    12ac:	34422121 	ori $v0,$v0,0x2121
    12b0:	2403ffee 	li $v1,-18
    12b4:	00622006 	srlv $a0,$v0,$v1
    12b8:	341d8484 	li $sp,0x8484
    12bc:	241e0014 	li $s8,20
    12c0:	149d00c5 	bne $a0,$sp,15d8 <fail>

000012c4 <test_21>:
    12c4:	3c022121 	lui $v0,0x2121
    12c8:	34422121 	ori $v0,$v0,0x2121
    12cc:	2403ffff 	li $v1,-1
    12d0:	00622006 	srlv $a0,$v0,$v1
    12d4:	241d0000 	li $sp,0
    12d8:	241e0015 	li $s8,21
    12dc:	149d00be 	bne $a0,$sp,15d8 <fail>

000012e0 <test_22>:
    12e0:	3c028000 	lui $v0,0x8000
    12e4:	24030007 	li $v1,7
    12e8:	00621006 	srlv $v0,$v0,$v1
    12ec:	3c1d0100 	lui $sp,0x100
    12f0:	241e0016 	li $s8,22
    12f4:	145d00b8 	bne $v0,$sp,15d8 <fail>

000012f8 <test_23>:
    12f8:	3c028000 	lui $v0,0x8000
    12fc:	2403000e 	li $v1,14
    1300:	00621806 	srlv $v1,$v0,$v1
    1304:	3c1d0002 	lui $sp,0x2
    1308:	241e0017 	li $s8,23
    130c:	147d00b2 	bne $v1,$sp,15d8 <fail>

00001310 <test_24>:
    1310:	24020007 	li $v0,7
    1314:	00421006 	srlv $v0,$v0,$v0
    1318:	241d0000 	li $sp,0
    131c:	241e0018 	li $s8,24
    1320:	145d00ad 	bne $v0,$sp,15d8 <fail>

00001324 <test_25>:
    1324:	24050000 	li $a1,0
    1328:	3c028000 	lui $v0,0x8000
    132c:	24030007 	li $v1,7
    1330:	00622006 	srlv $a0,$v0,$v1
    1334:	24870000 	addiu $a3,$a0,0
    1338:	24a50001 	addiu $a1,$a1,1
    133c:	24060002 	li $a2,2
    1340:	14a6fff9 	bne $a1,$a2,1328 <test_25+4>
    1344:	3c1d0100 	lui $sp,0x100
    1348:	241e0019 	li $s8,25
    134c:	14fd00a2 	bne $a3,$sp,15d8 <fail>

00001350 <test_26>:
    1350:	24050000 	li $a1,0
    1354:	3c028000 	lui $v0,0x8000
    1358:	2403000e 	li $v1,14
    135c:	00622006 	srlv $a0,$v0,$v1
    1360:	00000000 	nop
    1364:	24870000 	addiu $a3,$a0,0
    1368:	24a50001 	addiu $a1,$a1,1
    136c:	24060002 	li $a2,2
    1370:	14a6fff8 	bne $a1,$a2,1354 <test_26+4>
    1374:	3c1d0002 	lui $sp,0x2
    1378:	241e001a 	li $s8,26
    137c:	14fd0096 	bne $a3,$sp,15d8 <fail>

00001380 <test_27>:
    1380:	24050000 	li $a1,0
    1384:	3c028000 	lui $v0,0x8000
    1388:	2403001f 	li $v1,31
    138c:	00622006 	srlv $a0,$v0,$v1
    1390:	00000000 	nop
    1394:	00000000 	nop
    1398:	24870000 	addiu $a3,$a0,0
    139c:	24a50001 	addiu $a1,$a1,1
    13a0:	24060002 	li $a2,2
    13a4:	14a6fff7 	bne $a1,$a2,1384 <test_27+4>
    13a8:	241d0001 	li $sp,1
    13ac:	241e001b 	li $s8,27
    13b0:	14fd0089 	bne $a3,$sp,15d8 <fail>

000013b4 <test_28>:
    13b4:	24050000 	li $a1,0
    13b8:	3c028000 	lui $v0,0x8000
    13bc:	24030007 	li $v1,7
    13c0:	00622006 	srlv $a0,$v0,$v1
    13c4:	24a50001 	addiu $a1,$a1,1
    13c8:	24060002 	li $a2,2
    13cc:	14a6fffa 	bne $a1,$a2,13b8 <test_28+4>
    13d0:	3c1d0100 	lui $sp,0x100
    13d4:	241e001c 	li $s8,28
    13d8:	149d007f 	bne $a0,$sp,15d8 <fail>

000013dc <test_29>:
    13dc:	24050000 	li $a1,0
    13e0:	3c028000 	lui $v0,0x8000
    13e4:	2403000e 	li $v1,14
    13e8:	00000000 	nop
    13ec:	00622006 	srlv $a0,$v0,$v1
    13f0:	24a50001 	addiu $a1,$a1,1
    13f4:	24060002 	li $a2,2
    13f8:	14a6fff9 	bne $a1,$a2,13e0 <test_29+4>
    13fc:	3c1d0002 	lui $sp,0x2
    1400:	241e001d 	li $s8,29
    1404:	149d0074 	bne $a0,$sp,15d8 <fail>

00001408 <test_30>:
    1408:	24050000 	li $a1,0
    140c:	3c028000 	lui $v0,0x8000
    1410:	2403001f 	li $v1,31
    1414:	00000000 	nop
    1418:	00000000 	nop
    141c:	00622006 	srlv $a0,$v0,$v1
    1420:	24a50001 	addiu $a1,$a1,1
    1424:	24060002 	li $a2,2
    1428:	14a6fff8 	bne $a1,$a2,140c <test_30+4>
    142c:	241d0001 	li $sp,1
    1430:	241e001e 	li $s8,30
    1434:	149d0068 	bne $a0,$sp,15d8 <fail>

00001438 <test_31>:
    1438:	24050000 	li $a1,0
    143c:	3c028000 	lui $v0,0x8000
    1440:	00000000 	nop
    1444:	24030007 	li $v1,7
    1448:	00622006 	srlv $a0,$v0,$v1
    144c:	24a50001 	addiu $a1,$a1,1
    1450:	24060002 	li $a2,2
    1454:	14a6fff9 	bne $a1,$a2,143c <test_31+4>
    1458:	3c1d0100 	lui $sp,0x100
    145c:	241e001f 	li $s8,31
    1460:	149d005d 	bne $a0,$sp,15d8 <fail>

00001464 <test_32>:
    1464:	24050000 	li $a1,0
    1468:	3c028000 	lui $v0,0x8000
    146c:	00000000 	nop
    1470:	2403000e 	li $v1,14
    1474:	00000000 	nop
    1478:	00622006 	srlv $a0,$v0,$v1
    147c:	24a50001 	addiu $a1,$a1,1
    1480:	24060002 	li $a2,2
    1484:	14a6fff8 	bne $a1,$a2,1468 <test_32+4>
    1488:	3c1d0002 	lui $sp,0x2
    148c:	241e0020 	li $s8,32
    1490:	149d0051 	bne $a0,$sp,15d8 <fail>

00001494 <test_33>:
    1494:	24050000 	li $a1,0
    1498:	3c028000 	lui $v0,0x8000
    149c:	00000000 	nop
    14a0:	00000000 	nop
    14a4:	2403001f 	li $v1,31
    14a8:	00622006 	srlv $a0,$v0,$v1
    14ac:	24a50001 	addiu $a1,$a1,1
    14b0:	24060002 	li $a2,2
    14b4:	14a6fff8 	bne $a1,$a2,1498 <test_33+4>
    14b8:	241d0001 	li $sp,1
    14bc:	241e0021 	li $s8,33
    14c0:	149d0045 	bne $a0,$sp,15d8 <fail>

000014c4 <test_34>:
    14c4:	24050000 	li $a1,0
    14c8:	24030007 	li $v1,7
    14cc:	3c028000 	lui $v0,0x8000
    14d0:	00622006 	srlv $a0,$v0,$v1
    14d4:	24a50001 	addiu $a1,$a1,1
    14d8:	24060002 	li $a2,2
    14dc:	14a6fffa 	bne $a1,$a2,14c8 <test_34+4>
    14e0:	3c1d0100 	lui $sp,0x100
    14e4:	241e0022 	li $s8,34
    14e8:	149d003b 	bne $a0,$sp,15d8 <fail>

000014ec <test_35>:
    14ec:	24050000 	li $a1,0
    14f0:	2403000e 	li $v1,14
    14f4:	3c028000 	lui $v0,0x8000
    14f8:	00000000 	nop
    14fc:	00622006 	srlv $a0,$v0,$v1
    1500:	24a50001 	addiu $a1,$a1,1
    1504:	24060002 	li $a2,2
    1508:	14a6fff9 	bne $a1,$a2,14f0 <test_35+4>
    150c:	3c1d0002 	lui $sp,0x2
    1510:	241e0023 	li $s8,35
    1514:	149d0030 	bne $a0,$sp,15d8 <fail>

00001518 <test_36>:
    1518:	24050000 	li $a1,0
    151c:	2403001f 	li $v1,31
    1520:	3c028000 	lui $v0,0x8000
    1524:	00000000 	nop
    1528:	00000000 	nop
    152c:	00622006 	srlv $a0,$v0,$v1
    1530:	24a50001 	addiu $a1,$a1,1
    1534:	24060002 	li $a2,2
    1538:	14a6fff8 	bne $a1,$a2,151c <test_36+4>
    153c:	241d0001 	li $sp,1
    1540:	241e0024 	li $s8,36
    1544:	149d0024 	bne $a0,$sp,15d8 <fail>

00001548 <test_37>:
    1548:	24050000 	li $a1,0
    154c:	24030007 	li $v1,7
    1550:	00000000 	nop
    1554:	3c028000 	lui $v0,0x8000
    1558:	00622006 	srlv $a0,$v0,$v1
    155c:	24a50001 	addiu $a1,$a1,1
    1560:	24060002 	li $a2,2
    1564:	14a6fff9 	bne $a1,$a2,154c <test_37+4>
    1568:	3c1d0100 	lui $sp,0x100
    156c:	241e0025 	li $s8,37
    1570:	149d0019 	bne $a0,$sp,15d8 <fail>

00001574 <test_38>:
    1574:	24050000 	li $a1,0
    1578:	2403000e 	li $v1,14
    157c:	00000000 	nop
    1580:	3c028000 	lui $v0,0x8000
    1584:	00000000 	nop
    1588:	00622006 	srlv $a0,$v0,$v1
    158c:	24a50001 	addiu $a1,$a1,1
    1590:	24060002 	li $a2,2
    1594:	14a6fff8 	bne $a1,$a2,1578 <test_38+4>
    1598:	3c1d0002 	lui $sp,0x2
    159c:	241e0026 	li $s8,38
    15a0:	149d000d 	bne $a0,$sp,15d8 <fail>

000015a4 <test_39>:
    15a4:	24050000 	li $a1,0
    15a8:	2403001f 	li $v1,31
    15ac:	00000000 	nop
    15b0:	00000000 	nop
    15b4:	3c028000 	lui $v0,0x8000
    15b8:	00622006 	srlv $a0,$v0,$v1
    15bc:	24a50001 	addiu $a1,$a1,1
    15c0:	24060002 	li $a2,2
    15c4:	14a6fff8 	bne $a1,$a2,15a8 <test_39+4>
    15c8:	241d0001 	li $sp,1
    15cc:	241e0027 	li $s8,39
    15d0:	149d0001 	bne $a0,$sp,15d8 <fail>
    15d4:	141e0003 	bne $zero,$s8,15e4 <pass>

000015d8 <fail>:
    15d8:	409ea800 	mtc0 $s8,$21
    15dc:	1000ffff 	b 15dc <fail+4>
    15e0:	00000000 	nop

000015e4 <pass>:
    15e4:	4080a800 	mtc0 $zero,$21
    15e8:	1000ffff 	b 15e8 <pass+4>
    15ec:	00000000 	nop
Disassembly of section .aibpointers:
Disassembly of section .data:

000015f0 <_fdata>:
    15f0:	00000000 	nop
    15f4:	00000001 	movf $zero,$zero,$fcc0
    15f8:	00000002 	srl $zero,$zero,0x0
    15fc:	00000003 	sra $zero,$zero,0x0
    1600:	00000004 	sllv $zero,$zero,$zero
    1604:	00000005 	selsl $zero,$zero,$zero
    1608:	00000006 	srlv $zero,$zero,$zero
    160c:	00000007 	srav $zero,$zero,$zero
    1610:	00000008 	jr $zero

00001614 <__testsentinel>:
    1614:	deadbeef 	ld $t5,-16657($s5)

00001618 <__teststatus>:
    1618:	00005804 	sllv $t3,$zero,$zero
    161c:	00000000 	nop
Disassembly of section .reginfo:

00001620 <.reginfo>:
    1620:	e00700fc 	sc $a3,252($zero)
    1624:	00000000 	nop
    1628:	00000000 	nop
    162c:	00000000 	nop
    1630:	00000000 	nop
    1634:	00009610 	0x9610
