
build/median/a.out:     file format elf32-bigmips

Disassembly of section .text:

00001000 <__start>:
    1000:	27bdffe8 	addiu $sp,$sp,-24
    1004:	afbf0010 	sw $ra,16($sp)
    1008:	0c000462 	jal 1188 <main>
    100c:	4082a800 	mtc0 $v0,$21
    1010:	08000404 	j 1010 <__start+10>
    1014:	00000000 	nop
    1018:	00000000 	nop
    101c:	00000000 	nop

00001020 <printInt>:
    1020:	40849000 	mtc0 $a0,$18
    1024:	03e00008 	jr $ra
    1028:	00000000 	nop

0000102c <printChar>:
    102c:	40849800 	mtc0 $a0,$19
    1030:	03e00008 	jr $ra
    1034:	00000000 	nop

00001038 <printStr>:
    1038:	27bdffe0 	addiu $sp,$sp,-32
    103c:	afb00010 	sw $s0,16($sp)
    1040:	00808021 	move $s0,$a0
    1044:	afb20018 	sw $s2,24($sp)
    1048:	24120018 	li $s2,24
    104c:	afb10014 	sw $s1,20($sp)
    1050:	241100ff 	li $s1,255
    1054:	afbf001c 	sw $ra,28($sp)
    1058:	8e020000 	lw $v0,0($s0)
    105c:	32030003 	andi $v1,$s0,0x3
    1060:	000318c0 	sll $v1,$v1,0x3
    1064:	02431823 	subu $v1,$s2,$v1
    1068:	00712004 	sllv $a0,$s1,$v1
    106c:	00441024 	and $v0,$v0,$a0
    1070:	00622006 	srlv $a0,$v0,$v1
    1074:	10800003 	beqz $a0,1084 <printStr+4c>
    1078:	0c00040b 	jal 102c <printChar>
    107c:	26100001 	addiu $s0,$s0,1
    1080:	08000416 	j 1058 <printStr+20>
    1084:	8fbf001c 	lw $ra,28($sp)
    1088:	8fb20018 	lw $s2,24($sp)
    108c:	8fb10014 	lw $s1,20($sp)
    1090:	8fb00010 	lw $s0,16($sp)
    1094:	27bd0020 	addiu $sp,$sp,32
    1098:	03e00008 	jr $ra
    109c:	00000000 	nop

000010a0 <getTime>:
    10a0:	40025000 	mfc0 $v0,$10
    10a4:	03e00008 	jr $ra

000010a8 <getInsts>:
    10a8:	40025800 	mfc0 $v0,$11
    10ac:	03e00008 	jr $ra

000010b0 <median>:
    10b0:	24090001 	li $t1,1
    10b4:	00041080 	sll $v0,$a0,0x2
    10b8:	00461021 	addu $v0,$v0,$a2
    10bc:	2484ffff 	addiu $a0,$a0,-1
    10c0:	acc00000 	sw $zero,0($a2)
    10c4:	ac40fffc 	sw $zero,-4($v0)
    10c8:	0124102a 	slt $v0,$t1,$a0
    10cc:	1040001d 	beqz $v0,1144 <median+94>
    10d0:	24c60004 	addiu $a2,$a2,4
    10d4:	24ab0008 	addiu $t3,$a1,8
    10d8:	24aa0004 	addiu $t2,$a1,4
    10dc:	8ca80000 	lw $t0,0($a1)
    10e0:	8d470000 	lw $a3,0($t2)
    10e4:	8d630000 	lw $v1,0($t3)
    10e8:	0107102a 	slt $v0,$t0,$a3
    10ec:	10400005 	beqz $v0,1104 <median+54>
    10f0:	00e3102a 	slt $v0,$a3,$v1
    10f4:	14400009 	bnez $v0,111c <median+6c>
    10f8:	0068102a 	slt $v0,$v1,$t0
    10fc:	14400003 	bnez $v0,110c <median+5c>
    1100:	08000449 	j 1124 <median+74>
    1104:	0103102a 	slt $v0,$t0,$v1
    1108:	10400002 	beqz $v0,1114 <median+64>
    110c:	acc80000 	sw $t0,0($a2)
    1110:	0800044a 	j 1128 <median+78>
    1114:	0067102a 	slt $v0,$v1,$a3
    1118:	10400002 	beqz $v0,1124 <median+74>
    111c:	acc70000 	sw $a3,0($a2)
    1120:	0800044a 	j 1128 <median+78>
    1124:	acc30000 	sw $v1,0($a2)
    1128:	24c60004 	addiu $a2,$a2,4
    112c:	256b0004 	addiu $t3,$t3,4
    1130:	254a0004 	addiu $t2,$t2,4
    1134:	24a50004 	addiu $a1,$a1,4
    1138:	25290001 	addiu $t1,$t1,1
    113c:	0124102a 	slt $v0,$t1,$a0
    1140:	1440ffe6 	bnez $v0,10dc <median+2c>
    1144:	03e00008 	jr $ra
    1148:	00000000 	nop
    114c:	00000000 	nop

00001150 <verify>:
    1150:	00003821 	move $a3,$zero
    1154:	1880000a 	blez $a0,1180 <verify+30>
    1158:	8ca30000 	lw $v1,0($a1)
    115c:	8cc20000 	lw $v0,0($a2)
    1160:	10620002 	beq $v1,$v0,116c <verify+1c>
    1164:	00001021 	move $v0,$zero
    1168:	03e00008 	jr $ra
    116c:	24c60004 	addiu $a2,$a2,4
    1170:	24a50004 	addiu $a1,$a1,4
    1174:	24e70001 	addiu $a3,$a3,1
    1178:	00e4102a 	slt $v0,$a3,$a0
    117c:	1440fff6 	bnez $v0,1158 <verify+8>
    1180:	24020001 	li $v0,1
    1184:	03e00008 	jr $ra

00001188 <main>:
    1188:	27bdf9a0 	addiu $sp,$sp,-1632
    118c:	afbf0658 	sw $ra,1624($sp)
    1190:	afb10654 	sw $s1,1620($sp)
    1194:	afb00650 	sw $s0,1616($sp)
    1198:	0c000428 	jal 10a0 <getTime>
    119c:	00408021 	move $s0,$v0
    11a0:	0c00042a 	jal 10a8 <getInsts>
    11a4:	00408821 	move $s1,$v0
    11a8:	24040190 	li $a0,400
    11ac:	3c050000 	lui $a1,0x0
    11b0:	24a51250 	addiu $a1,$a1,4688
    11b4:	27a60010 	addiu $a2,$sp,16
    11b8:	0c00042c 	jal 10b0 <median>
    11bc:	0c000428 	jal 10a0 <getTime>
    11c0:	00508023 	subu $s0,$v0,$s0
    11c4:	0c00042a 	jal 10a8 <getInsts>
    11c8:	00518823 	subu $s1,$v0,$s1
    11cc:	3c040000 	lui $a0,0x0
    11d0:	24841230 	addiu $a0,$a0,4656
    11d4:	0c00040e 	jal 1038 <printStr>
    11d8:	02002021 	move $a0,$s0
    11dc:	0c000408 	jal 1020 <printInt>
    11e0:	2404000a 	li $a0,10
    11e4:	0c00040b 	jal 102c <printChar>
    11e8:	3c040000 	lui $a0,0x0
    11ec:	2484123c 	addiu $a0,$a0,4668
    11f0:	0c00040e 	jal 1038 <printStr>
    11f4:	02202021 	move $a0,$s1
    11f8:	0c000408 	jal 1020 <printInt>
    11fc:	2404000a 	li $a0,10
    1200:	0c00040b 	jal 102c <printChar>
    1204:	24040190 	li $a0,400
    1208:	27a50010 	addiu $a1,$sp,16
    120c:	3c060000 	lui $a2,0x0
    1210:	24c61890 	addiu $a2,$a2,6288
    1214:	0c000454 	jal 1150 <verify>
    1218:	8fbf0658 	lw $ra,1624($sp)
    121c:	8fb10654 	lw $s1,1620($sp)
    1220:	8fb00650 	lw $s0,1616($sp)
    1224:	2c420001 	sltiu $v0,$v0,1
    1228:	27bd0660 	addiu $sp,$sp,1632
    122c:	03e00008 	jr $ra
Disassembly of section .aibpointers: