
build/median/a.out:     file format elf32-bigmips

Disassembly of section .text:

00001000 <__start>:
    1000:	27bdffe8 	addiu $sp,$sp,-24
    1004:	afbf0010 	sw $ra,16($sp)
    1008:	0c000462 	jal 1188 <main>
    100c:	4082a800 	mtc0 $v0,$21
    1010:	08000404 	j 1010 <__start+10>
    1014:	00000000 	nop
    1018:	00000000 	nop
    101c:	00000000 	nop

00001020 <printInt>:
    1020:	40849000 	mtc0 $a0,$18
    1024:	03e00008 	jr $ra
    1028:	00000000 	nop

0000102c <printChar>:
    102c:	40849800 	mtc0 $a0,$19
    1030:	03e00008 	jr $ra
    1034:	00000000 	nop

00001038 <printStr>:
    1038:	27bdffe0 	addiu $sp,$sp,-32
    103c:	afb00010 	sw $s0,16($sp)
    1040:	00808021 	move $s0,$a0
    1044:	afb20018 	sw $s2,24($sp)
    1048:	24120018 	li $s2,24
    104c:	afb10014 	sw $s1,20($sp)
    1050:	241100ff 	li $s1,255
    1054:	afbf001c 	sw $ra,28($sp)
    1058:	8e020000 	lw $v0,0($s0)
    105c:	32030003 	andi $v1,$s0,0x3
    1060:	000318c0 	sll $v1,$v1,0x3
    1064:	02431823 	subu $v1,$s2,$v1
    1068:	00712004 	sllv $a0,$s1,$v1
    106c:	00441024 	and $v0,$v0,$a0
    1070:	00622006 	srlv $a0,$v0,$v1
    1074:	10800003 	beqz $a0,1084 <printStr+4c>
    1078:	0c00040b 	jal 102c <printChar>
    107c:	26100001 	addiu $s0,$s0,1
    1080:	08000416 	j 1058 <printStr+20>
    1084:	8fbf001c 	lw $ra,28($sp)
    1088:	8fb20018 	lw $s2,24($sp)
    108c:	8fb10014 	lw $s1,20($sp)
    1090:	8fb00010 	lw $s0,16($sp)
    1094:	27bd0020 	addiu $sp,$sp,32
    1098:	03e00008 	jr $ra
    109c:	00000000 	nop

000010a0 <getTime>:
    10a0:	40025000 	mfc0 $v0,$10
    10a4:	03e00008 	jr $ra

000010a8 <getInsts>:
    10a8:	40025800 	mfc0 $v0,$11
    10ac:	03e00008 	jr $ra

000010b0 <median>:
    10b0:	24090001 	li $t1,1
    10b4:	00041080 	sll $v0,$a0,0x2
    10b8:	00461021 	addu $v0,$v0,$a2
    10bc:	2484ffff 	addiu $a0,$a0,-1
    10c0:	acc00000 	sw $zero,0($a2)
    10c4:	ac40fffc 	sw $zero,-4($v0)
    10c8:	0124102a 	slt $v0,$t1,$a0
    10cc:	1040001d 	beqz $v0,1144 <median+94>
    10d0:	24c60004 	addiu $a2,$a2,4
    10d4:	24ab0008 	addiu $t3,$a1,8
    10d8:	24aa0004 	addiu $t2,$a1,4
    10dc:	8ca80000 	lw $t0,0($a1)
    10e0:	8d470000 	lw $a3,0($t2)
    10e4:	8d630000 	lw $v1,0($t3)
    10e8:	0107102a 	slt $v0,$t0,$a3
    10ec:	10400005 	beqz $v0,1104 <median+54>
    10f0:	00e3102a 	slt $v0,$a3,$v1
    10f4:	14400009 	bnez $v0,111c <median+6c>
    10f8:	0068102a 	slt $v0,$v1,$t0
    10fc:	14400003 	bnez $v0,110c <median+5c>
    1100:	08000449 	j 1124 <median+74>
    1104:	0103102a 	slt $v0,$t0,$v1
    1108:	10400002 	beqz $v0,1114 <median+64>
    110c:	acc80000 	sw $t0,0($a2)
    1110:	0800044a 	j 1128 <median+78>
    1114:	0067102a 	slt $v0,$v1,$a3
    1118:	10400002 	beqz $v0,1124 <median+74>
    111c:	acc70000 	sw $a3,0($a2)
    1120:	0800044a 	j 1128 <median+78>
    1124:	acc30000 	sw $v1,0($a2)
    1128:	24c60004 	addiu $a2,$a2,4
    112c:	256b0004 	addiu $t3,$t3,4
    1130:	254a0004 	addiu $t2,$t2,4
    1134:	24a50004 	addiu $a1,$a1,4
    1138:	25290001 	addiu $t1,$t1,1
    113c:	0124102a 	slt $v0,$t1,$a0
    1140:	1440ffe6 	bnez $v0,10dc <median+2c>
    1144:	03e00008 	jr $ra
    1148:	00000000 	nop
    114c:	00000000 	nop

00001150 <verify>:
    1150:	00003821 	move $a3,$zero
    1154:	1880000a 	blez $a0,1180 <verify+30>
    1158:	8ca30000 	lw $v1,0($a1)
    115c:	8cc20000 	lw $v0,0($a2)
    1160:	10620002 	beq $v1,$v0,116c <verify+1c>
    1164:	00001021 	move $v0,$zero
    1168:	03e00008 	jr $ra
    116c:	24c60004 	addiu $a2,$a2,4
    1170:	24a50004 	addiu $a1,$a1,4
    1174:	24e70001 	addiu $a3,$a3,1
    1178:	00e4102a 	slt $v0,$a3,$a0
    117c:	1440fff6 	bnez $v0,1158 <verify+8>
    1180:	24020001 	li $v0,1
    1184:	03e00008 	jr $ra

00001188 <main>:
    1188:	27bdf9a0 	addiu $sp,$sp,-1632
    118c:	afbf0658 	sw $ra,1624($sp)
    1190:	afb10654 	sw $s1,1620($sp)
    1194:	afb00650 	sw $s0,1616($sp)
    1198:	0c000428 	jal 10a0 <getTime>
    119c:	00408021 	move $s0,$v0
    11a0:	0c00042a 	jal 10a8 <getInsts>
    11a4:	00408821 	move $s1,$v0
    11a8:	24040190 	li $a0,400
    11ac:	3c050000 	lui $a1,0x0
    11b0:	24a51250 	addiu $a1,$a1,4688
    11b4:	27a60010 	addiu $a2,$sp,16
    11b8:	0c00042c 	jal 10b0 <median>
    11bc:	0c000428 	jal 10a0 <getTime>
    11c0:	00508023 	subu $s0,$v0,$s0
    11c4:	0c00042a 	jal 10a8 <getInsts>
    11c8:	00518823 	subu $s1,$v0,$s1
    11cc:	3c040000 	lui $a0,0x0
    11d0:	24841230 	addiu $a0,$a0,4656
    11d4:	0c00040e 	jal 1038 <printStr>
    11d8:	02002021 	move $a0,$s0
    11dc:	0c000408 	jal 1020 <printInt>
    11e0:	2404000a 	li $a0,10
    11e4:	0c00040b 	jal 102c <printChar>
    11e8:	3c040000 	lui $a0,0x0
    11ec:	2484123c 	addiu $a0,$a0,4668
    11f0:	0c00040e 	jal 1038 <printStr>
    11f4:	02202021 	move $a0,$s1
    11f8:	0c000408 	jal 1020 <printInt>
    11fc:	2404000a 	li $a0,10
    1200:	0c00040b 	jal 102c <printChar>
    1204:	24040190 	li $a0,400
    1208:	27a50010 	addiu $a1,$sp,16
    120c:	3c060000 	lui $a2,0x0
    1210:	24c61890 	addiu $a2,$a2,6288
    1214:	0c000454 	jal 1150 <verify>
    1218:	8fbf0658 	lw $ra,1624($sp)
    121c:	8fb10654 	lw $s1,1620($sp)
    1220:	8fb00650 	lw $s0,1616($sp)
    1224:	2c420001 	sltiu $v0,$v0,1
    1228:	27bd0660 	addiu $sp,$sp,1632
    122c:	03e00008 	jr $ra
Disassembly of section .rodata:

00001230 <_frdata>:
    1230:	4379636c 	c0 0x179636c
    1234:	6573203d 	daddiu $s3,$t3,8253
    1238:	20000000 	addi $zero,$zero,0
    123c:	496e7374 	0x496e7374
    1240:	7320203d 	addciu $zero,$t9,8253
    1244:	20000000 	addi $zero,$zero,0
    1248:	00000000 	nop
    124c:	00000000 	nop
Disassembly of section .aibpointers:
Disassembly of section .data:

00001250 <_fdata>:
    1250:	00000029 	dmadd16 $zero,$zero
    1254:	000001c6 	0x1c6
    1258:	00000341 	0x341
    125c:	0000014f 	0x14f
    1260:	00000234 	teq $zero,$zero
    1264:	00000001 	movf $zero,$zero,$fcc0
    1268:	000000bb 	dsra $zero,$zero,0x2
    126c:	000003dd 	0x3dd
    1270:	000002ed 	0x2ed
    1274:	0000016d 	0x16d
    1278:	0000015e 	0x15e
    127c:	0000023c 	dsll32 $zero,$zero,0x8
    1280:	00000084 	0x84
    1284:	00000040 	sll $zero,$zero,0x1
    1288:	000003b5 	0x3b5
    128c:	00000099 	0x99
    1290:	00000248 	0x248
    1294:	000000d8 	0xd8
    1298:	00000325 	0x325
    129c:	0000008c 	syscall 0x2
    12a0:	0000026d 	0x26d
    12a4:	000000d2 	0xd2
    12a8:	00000006 	srlv $zero,$zero,$zero
    12ac:	0000023c 	dsll32 $zero,$zero,0x8
    12b0:	000003a3 	0x3a3
    12b4:	00000153 	0x153
    12b8:	0000037a 	dsrl $zero,$zero,0xd
    12bc:	00000251 	0x251
    12c0:	00000188 	0x188
    12c4:	00000382 	srl $zero,$zero,0xe
    12c8:	000002b6 	tne $zero,$zero
    12cc:	000000e4 	0xe4
    12d0:	000003c1 	0x3c1
    12d4:	0000000c 	syscall
    12d8:	0000006e 	0x6e
    12dc:	00000373 	tltu $zero,$zero
    12e0:	00000074 	teq $zero,$zero
    12e4:	000002ee 	0x2ee
    12e8:	00000128 	0x128
    12ec:	00000286 	0x286
    12f0:	000001aa 	0x1aa
    12f4:	000001f4 	teq $zero,$zero
    12f8:	0000013a 	dsrl $zero,$zero,0x4
    12fc:	000001b4 	teq $zero,$zero
    1300:	00000293 	0x293
    1304:	000002bd 	0x2bd
    1308:	00000306 	0x306
    130c:	0000032c 	0x32c
    1310:	0000013f 	dsra32 $zero,$zero,0x4
    1314:	000003d5 	0x3d5
    1318:	000002a6 	0x2a6
    131c:	00000096 	0x96
    1320:	0000036b 	0x36b
    1324:	000002b8 	dsll $zero,$zero,0xa
    1328:	00000178 	dsll $zero,$zero,0x5
    132c:	00000234 	teq $zero,$zero
    1330:	000001da 	0x1da
    1334:	00000110 	0x110
    1338:	000003aa 	0x3aa
    133c:	00000102 	srl $zero,$zero,0x4
    1340:	0000021b 	0x21b
    1344:	00000287 	0x287
    1348:	00000239 	0x239
    134c:	000001fd 	0x1fd
    1350:	000000cb 	0xcb
    1354:	00000058 	0x58
    1358:	00000118 	0x118
    135c:	000002bf 	dsra32 $zero,$zero,0xa
    1360:	000002f7 	0x2f7
    1364:	0000029d 	0x29d
    1368:	0000025e 	0x25e
    136c:	00000177 	0x177
    1370:	000001ff 	dsra32 $zero,$zero,0x7
    1374:	00000227 	0x227
    1378:	00000291 	0x291
    137c:	000003a8 	0x3a8
    1380:	000000c3 	sra $zero,$zero,0x3
    1384:	00000250 	0x250
    1388:	00000051 	0x51
    138c:	00000239 	0x239
    1390:	0000010b 	0x10b
    1394:	000003b8 	dsll $zero,$zero,0xe
    1398:	000000e5 	0xe5
    139c:	00000320 	0x320
    13a0:	00000151 	0x151
    13a4:	00000248 	0x248
    13a8:	000003b0 	tge $zero,$zero
    13ac:	00000283 	sra $zero,$zero,0xa
    13b0:	00000386 	0x386
    13b4:	00000170 	tge $zero,$zero
    13b8:	000000f1 	tgeu $zero,$zero
    13bc:	000001e9 	0x1e9
    13c0:	00000391 	0x391
    13c4:	00000148 	0x148
    13c8:	0000033a 	dsrl $zero,$zero,0xc
    13cc:	00000139 	0x139
    13d0:	000003a5 	0x3a5
    13d4:	00000250 	0x250
    13d8:	000003d9 	0x3d9
    13dc:	00000184 	0x184
    13e0:	000000c3 	sra $zero,$zero,0x3
    13e4:	0000021f 	0x21f
    13e8:	000003c0 	sll $zero,$zero,0xf
    13ec:	00000289 	0x289
    13f0:	00000236 	tne $zero,$zero
    13f4:	000003d3 	0x3d3
    13f8:	0000015e 	0x15e
    13fc:	000003e5 	0x3e5
    1400:	00000289 	0x289
    1404:	0000032e 	0x32e
    1408:	00000291 	0x291
    140c:	0000004f 	0x4f
    1410:	000000b5 	0xb5
    1414:	000000d0 	0xd0
    1418:	0000006f 	0x6f
    141c:	000003e6 	0x3e6
    1420:	0000035b 	0x35b
    1424:	00000275 	0x275
    1428:	00000041 	0x41
    142c:	0000034f 	0x34f
    1430:	00000120 	0x120
    1434:	000002c0 	sll $zero,$zero,0xb
    1438:	0000015d 	0x15d
    143c:	000003e5 	0x3e5
    1440:	0000008d 	break 0x0
    1444:	000000fd 	0xfd
    1448:	00000389 	0x389
    144c:	000002cb 	0x2cb
    1450:	00000376 	tne $zero,$zero
    1454:	000001ae 	0x1ae
    1458:	00000108 	0x108
    145c:	0000019f 	0x19f
    1460:	00000240 	sll $zero,$zero,0x9
    1464:	0000021a 	0x21a
    1468:	000003d3 	0x3d3
    146c:	000002bc 	dsll32 $zero,$zero,0xa
    1470:	000002f9 	0x2f9
    1474:	00000004 	sllv $zero,$zero,$zero
    1478:	000000f1 	tgeu $zero,$zero
    147c:	000001ee 	0x1ee
    1480:	000001de 	0x1de
    1484:	00000064 	0x64
    1488:	000001f3 	tltu $zero,$zero
    148c:	00000360 	0x360
    1490:	00000193 	0x193
    1494:	000002b5 	0x2b5
    1498:	000000de 	0xde
    149c:	000001a0 	0x1a0
    14a0:	000001bc 	dsll32 $zero,$zero,0x6
    14a4:	00000128 	0x128
    14a8:	000002d1 	0x2d1
    14ac:	0000011d 	0x11d
    14b0:	000002a4 	0x2a4
    14b4:	0000026c 	0x26c
    14b8:	0000013d 	0x13d
    14bc:	0000004e 	0x4e
    14c0:	000000e0 	0xe0
    14c4:	0000015f 	0x15f
    14c8:	000003a9 	0x3a9
    14cc:	0000021c 	0x21c
    14d0:	00000120 	0x120
    14d4:	00000286 	0x286
    14d8:	00000077 	0x77
    14dc:	000000a9 	0xa9
    14e0:	00000267 	0x267
    14e4:	0000020f 	0x20f
    14e8:	0000025e 	0x25e
    14ec:	00000121 	0x121
    14f0:	00000185 	0x185
    14f4:	0000031c 	0x31c
    14f8:	0000015f 	0x15f
    14fc:	00000321 	0x321
    1500:	000001c7 	0x1c7
    1504:	000002d0 	0x2d0
    1508:	00000116 	0x116
    150c:	000002f6 	tne $zero,$zero
    1510:	0000016f 	0x16f
    1514:	000002e9 	0x2e9
    1518:	00000166 	0x166
    151c:	0000005c 	0x5c
    1520:	00000248 	0x248
    1524:	000003dd 	0x3dd
    1528:	0000003e 	dsrl32 $zero,$zero,0x0
    152c:	0000010f 	0x10f
    1530:	000003d9 	0x3d9
    1534:	00000355 	0x355
    1538:	00000193 	0x193
    153c:	00000314 	0x314
    1540:	0000015a 	0x15a
    1544:	00000213 	0x213
    1548:	00000205 	0x205
    154c:	000000de 	0xde
    1550:	0000022f 	0x22f
    1554:	000001cd 	break 0x0
    1558:	0000038c 	syscall 0xe
    155c:	000000f1 	tgeu $zero,$zero
    1560:	00000307 	0x307
    1564:	00000166 	0x166
    1568:	000000ff 	dsra32 $zero,$zero,0x3
    156c:	0000014c 	syscall 0x5
    1570:	0000030a 	0x30a
    1574:	000002ac 	0x2ac
    1578:	00000256 	0x256
    157c:	000002e4 	0x2e4
    1580:	0000008f 	0x8f
    1584:	000001be 	dsrl32 $zero,$zero,0x6
    1588:	00000021 	move $zero,$zero
    158c:	00000137 	0x137
    1590:	0000007d 	0x7d
    1594:	000002e7 	0x2e7
    1598:	000003ad 	0x3ad
    159c:	0000022d 	0x22d
    15a0:	000003a5 	0x3a5
    15a4:	000001df 	0x1df
    15a8:	0000031f 	0x31f
    15ac:	0000022d 	0x22d
    15b0:	00000229 	0x229
    15b4:	0000039d 	0x39d
    15b8:	000001af 	0x1af
    15bc:	0000031c 	0x31c
    15c0:	00000288 	0x288
    15c4:	00000165 	0x165
    15c8:	000003b8 	dsll $zero,$zero,0xe
    15cc:	0000037b 	dsra $zero,$zero,0xd
    15d0:	0000011f 	0x11f
    15d4:	0000029a 	0x29a
    15d8:	00000013 	mtlo $zero
    15dc:	00000202 	srl $zero,$zero,0x8
    15e0:	00000031 	tgeu $zero,$zero
    15e4:	0000022d 	0x22d
    15e8:	00000056 	0x56
    15ec:	00000366 	0x366
    15f0:	0000005f 	0x5f
    15f4:	00000355 	0x355
    15f8:	000001b9 	0x1b9
    15fc:	000001b8 	dsll $zero,$zero,0x6
    1600:	0000024b 	0x24b
    1604:	0000003d 	0x3d
    1608:	00000266 	0x266
    160c:	000002a6 	0x2a6
    1610:	0000017e 	dsrl32 $zero,$zero,0x5
    1614:	0000018c 	syscall 0x6
    1618:	00000118 	0x118
    161c:	00000009 	jalr $zero,$zero
    1620:	00000328 	0x328
    1624:	00000011 	mthi $zero
    1628:	000003cb 	0x3cb
    162c:	000000aa 	0xaa
    1630:	00000333 	tltu $zero,$zero
    1634:	00000123 	0x123
    1638:	00000158 	0x158
    163c:	0000017c 	dsll32 $zero,$zero,0x5
    1640:	000001c2 	srl $zero,$zero,0x7
    1644:	00000218 	0x218
    1648:	00000200 	sll $zero,$zero,0x8
    164c:	000000b9 	0xb9
    1650:	000003c5 	0x3c5
    1654:	00000395 	0x395
    1658:	0000015b 	0x15b
    165c:	0000021b 	0x21b
    1660:	00000328 	0x328
    1664:	000003d7 	0x3d7
    1668:	00000372 	tlt $zero,$zero
    166c:	00000377 	0x377
    1670:	00000219 	0x219
    1674:	00000036 	tne $zero,$zero
    1678:	000003b2 	tlt $zero,$zero
    167c:	00000264 	0x264
    1680:	000002bd 	0x2bd
    1684:	000003b7 	0x3b7
    1688:	00000164 	0x164
    168c:	000001df 	0x1df
    1690:	00000237 	0x237
    1694:	00000097 	0x97
    1698:	0000037b 	dsra $zero,$zero,0xd
    169c:	00000007 	srav $zero,$zero,$zero
    16a0:	00000016 	dsrlv $zero,$zero,$zero
    16a4:	00000281 	0x281
    16a8:	00000238 	dsll $zero,$zero,0x8
    16ac:	0000014f 	0x14f
    16b0:	00000299 	0x299
    16b4:	000002da 	0x2da
    16b8:	000001a7 	0x1a7
    16bc:	0000005f 	0x5f
    16c0:	000001b2 	tlt $zero,$zero
    16c4:	000002d8 	0x2d8
    16c8:	0000009e 	0x9e
    16cc:	00000118 	0x118
    16d0:	00000002 	srl $zero,$zero,0x0
    16d4:	0000018b 	0x18b
    16d8:	00000054 	0x54
    16dc:	000002b0 	tge $zero,$zero
    16e0:	000000f7 	0xf7
    16e4:	0000038f 	0x38f
    16e8:	00000031 	tgeu $zero,$zero
    16ec:	000001dc 	0x1dc
    16f0:	000001b3 	tltu $zero,$zero
    16f4:	0000032f 	0x32f
    16f8:	00000318 	0x318
    16fc:	000002d9 	0x2d9
    1700:	00000365 	0x365
    1704:	00000109 	0x109
    1708:	000001e6 	0x1e6
    170c:	0000007f 	dsra32 $zero,$zero,0x1
    1710:	0000019e 	0x19e
    1714:	000000ec 	0xec
    1718:	00000171 	tgeu $zero,$zero
    171c:	000000d6 	0xd6
    1720:	00000224 	0x224
    1724:	000000b4 	teq $zero,$zero
    1728:	00000206 	0x206
    172c:	00000006 	srlv $zero,$zero,$zero
    1730:	00000378 	dsll $zero,$zero,0xd
    1734:	000001f7 	0x1f7
    1738:	000002aa 	0x2aa
    173c:	00000254 	0x254
    1740:	0000011c 	0x11c
    1744:	000000ad 	0xad
    1748:	00000108 	0x108
    174c:	00000283 	sra $zero,$zero,0xa
    1750:	000001f3 	tltu $zero,$zero
    1754:	0000015a 	0x15a
    1758:	00000122 	0x122
    175c:	00000257 	0x257
    1760:	00000381 	0x381
    1764:	00000044 	0x44
    1768:	000000d7 	0xd7
    176c:	00000351 	0x351
    1770:	000002db 	0x2db
    1774:	00000292 	0x292
    1778:	000002b0 	tge $zero,$zero
    177c:	0000026b 	0x26b
    1780:	000000fb 	dsra $zero,$zero,0x3
    1784:	00000079 	0x79
    1788:	00000312 	0x312
    178c:	00000083 	sra $zero,$zero,0x2
    1790:	0000022b 	0x22b
    1794:	0000033c 	dsll32 $zero,$zero,0xc
    1798:	0000012e 	0x12e
    179c:	0000029b 	0x29b
    17a0:	00000210 	0x210
    17a4:	000001b1 	tgeu $zero,$zero
    17a8:	00000220 	0x220
    17ac:	000001e7 	0x1e7
    17b0:	00000142 	srl $zero,$zero,0x5
    17b4:	000002f1 	tgeu $zero,$zero
    17b8:	000003b3 	tltu $zero,$zero
    17bc:	0000007d 	0x7d
    17c0:	0000011f 	0x11f
    17c4:	00000272 	tlt $zero,$zero
    17c8:	00000338 	dsll $zero,$zero,0xc
    17cc:	0000000e 	0xe
    17d0:	00000130 	tge $zero,$zero
    17d4:	0000000a 	movz $zero,$zero,$zero
    17d8:	00000314 	0x314
    17dc:	00000193 	0x193
    17e0:	000002dd 	0x2dd
    17e4:	0000006a 	0x6a
    17e8:	000003bf 	dsra32 $zero,$zero,0xe
    17ec:	000002bf 	dsra32 $zero,$zero,0xa
    17f0:	0000016e 	0x16e
    17f4:	00000332 	tlt $zero,$zero
    17f8:	000002d2 	0x2d2
    17fc:	000003c4 	0x3c4
    1800:	00000126 	0x126
    1804:	00000196 	0x196
    1808:	000003cf 	0x3cf
    180c:	0000036a 	0x36a
    1810:	0000028d 	break 0x0
    1814:	00000358 	0x358
    1818:	000002ec 	0x2ec
    181c:	00000056 	0x56
    1820:	0000005b 	0x5b
    1824:	0000003c 	dsll32 $zero,$zero,0x0
    1828:	0000017a 	dsrl $zero,$zero,0x5
    182c:	00000294 	0x294
    1830:	00000069 	0x69
    1834:	0000029b 	0x29b
    1838:	00000066 	0x66
    183c:	00000099 	0x99
    1840:	0000017d 	0x17d
    1844:	00000079 	0x79
    1848:	0000028b 	0x28b
    184c:	00000062 	0x62
    1850:	00000339 	0x339
    1854:	0000019c 	0x19c
    1858:	00000348 	0x348
    185c:	000000ec 	0xec
    1860:	00000164 	0x164
    1864:	0000000c 	syscall
    1868:	00000094 	0x94
    186c:	000001a7 	0x1a7
    1870:	00000036 	tne $zero,$zero
    1874:	000003c5 	0x3c5
    1878:	0000008c 	syscall 0x2
    187c:	000000d8 	0xd8
    1880:	000003bb 	dsra $zero,$zero,0xe
    1884:	0000026d 	0x26d
    1888:	00000157 	0x157
    188c:	00000169 	0x169

00001890 <verify_data>:
    1890:	00000000 	nop
    1894:	000001c6 	0x1c6
    1898:	000001c6 	0x1c6
    189c:	00000234 	teq $zero,$zero
    18a0:	0000014f 	0x14f
    18a4:	000000bb 	dsra $zero,$zero,0x2
    18a8:	000000bb 	dsra $zero,$zero,0x2
    18ac:	000002ed 	0x2ed
    18b0:	000002ed 	0x2ed
    18b4:	0000016d 	0x16d
    18b8:	0000016d 	0x16d
    18bc:	0000015e 	0x15e
    18c0:	00000084 	0x84
    18c4:	00000084 	0x84
    18c8:	00000099 	0x99
    18cc:	00000248 	0x248
    18d0:	000000d8 	0xd8
    18d4:	00000248 	0x248
    18d8:	000000d8 	0xd8
    18dc:	0000026d 	0x26d
    18e0:	000000d2 	0xd2
    18e4:	000000d2 	0xd2
    18e8:	000000d2 	0xd2
    18ec:	0000023c 	dsll32 $zero,$zero,0x8
    18f0:	0000023c 	dsll32 $zero,$zero,0x8
    18f4:	0000037a 	dsrl $zero,$zero,0xd
    18f8:	00000251 	0x251
    18fc:	00000251 	0x251
    1900:	00000251 	0x251
    1904:	000002b6 	tne $zero,$zero
    1908:	000002b6 	tne $zero,$zero
    190c:	000002b6 	tne $zero,$zero
    1910:	000000e4 	0xe4
    1914:	0000006e 	0x6e
    1918:	0000006e 	0x6e
    191c:	00000074 	teq $zero,$zero
    1920:	000002ee 	0x2ee
    1924:	00000128 	0x128
    1928:	00000286 	0x286
    192c:	000001aa 	0x1aa
    1930:	000001f4 	teq $zero,$zero
    1934:	000001aa 	0x1aa
    1938:	000001b4 	teq $zero,$zero
    193c:	000001b4 	teq $zero,$zero
    1940:	00000293 	0x293
    1944:	000002bd 	0x2bd
    1948:	00000306 	0x306
    194c:	00000306 	0x306
    1950:	0000032c 	0x32c
    1954:	000002a6 	0x2a6
    1958:	000002a6 	0x2a6
    195c:	000002a6 	0x2a6
    1960:	000002b8 	dsll $zero,$zero,0xa
    1964:	000002b8 	dsll $zero,$zero,0xa
    1968:	00000234 	teq $zero,$zero
    196c:	000001da 	0x1da
    1970:	000001da 	0x1da
    1974:	000001da 	0x1da
    1978:	00000110 	0x110
    197c:	0000021b 	0x21b
    1980:	0000021b 	0x21b
    1984:	00000239 	0x239
    1988:	00000239 	0x239
    198c:	000001fd 	0x1fd
    1990:	000000cb 	0xcb
    1994:	000000cb 	0xcb
    1998:	00000118 	0x118
    199c:	000002bf 	dsra32 $zero,$zero,0xa
    19a0:	000002bf 	dsra32 $zero,$zero,0xa
    19a4:	0000029d 	0x29d
    19a8:	0000025e 	0x25e
    19ac:	000001ff 	dsra32 $zero,$zero,0x7
    19b0:	000001ff 	dsra32 $zero,$zero,0x7
    19b4:	00000227 	0x227
    19b8:	00000291 	0x291
    19bc:	00000291 	0x291
    19c0:	00000250 	0x250
    19c4:	000000c3 	sra $zero,$zero,0x3
    19c8:	00000239 	0x239
    19cc:	0000010b 	0x10b
    19d0:	00000239 	0x239
    19d4:	0000010b 	0x10b
    19d8:	00000320 	0x320
    19dc:	00000151 	0x151
    19e0:	00000248 	0x248
    19e4:	00000248 	0x248
    19e8:	00000283 	sra $zero,$zero,0xa
    19ec:	00000386 	0x386
    19f0:	00000283 	sra $zero,$zero,0xa
    19f4:	00000170 	tge $zero,$zero
    19f8:	00000170 	tge $zero,$zero
    19fc:	000001e9 	0x1e9
    1a00:	000001e9 	0x1e9
    1a04:	0000033a 	dsrl $zero,$zero,0xc
    1a08:	00000148 	0x148
    1a0c:	0000033a 	dsrl $zero,$zero,0xc
    1a10:	00000250 	0x250
    1a14:	000003a5 	0x3a5
    1a18:	00000250 	0x250
    1a1c:	00000184 	0x184
    1a20:	00000184 	0x184
    1a24:	0000021f 	0x21f
    1a28:	00000289 	0x289
    1a2c:	00000289 	0x289
    1a30:	00000289 	0x289
    1a34:	00000236 	tne $zero,$zero
    1a38:	000003d3 	0x3d3
    1a3c:	00000289 	0x289
    1a40:	0000032e 	0x32e
    1a44:	00000291 	0x291
    1a48:	00000291 	0x291
    1a4c:	000000b5 	0xb5
    1a50:	000000b5 	0xb5
    1a54:	000000b5 	0xb5
    1a58:	000000d0 	0xd0
    1a5c:	0000035b 	0x35b
    1a60:	0000035b 	0x35b
    1a64:	00000275 	0x275
    1a68:	00000275 	0x275
    1a6c:	00000120 	0x120
    1a70:	000002c0 	sll $zero,$zero,0xb
    1a74:	0000015d 	0x15d
    1a78:	000002c0 	sll $zero,$zero,0xb
    1a7c:	0000015d 	0x15d
    1a80:	000000fd 	0xfd
    1a84:	000000fd 	0xfd
    1a88:	000002cb 	0x2cb
    1a8c:	00000376 	tne $zero,$zero
    1a90:	000002cb 	0x2cb
    1a94:	000001ae 	0x1ae
    1a98:	0000019f 	0x19f
    1a9c:	0000019f 	0x19f
    1aa0:	0000021a 	0x21a
    1aa4:	00000240 	sll $zero,$zero,0x9
    1aa8:	000002bc 	dsll32 $zero,$zero,0xa
    1aac:	000002f9 	0x2f9
    1ab0:	000002bc 	dsll32 $zero,$zero,0xa
    1ab4:	000000f1 	tgeu $zero,$zero
    1ab8:	000000f1 	tgeu $zero,$zero
    1abc:	000001de 	0x1de
    1ac0:	000001de 	0x1de
    1ac4:	000001de 	0x1de
    1ac8:	000001f3 	tltu $zero,$zero
    1acc:	000001f3 	tltu $zero,$zero
    1ad0:	000002b5 	0x2b5
    1ad4:	00000193 	0x193
    1ad8:	000001a0 	0x1a0
    1adc:	000001a0 	0x1a0
    1ae0:	000001a0 	0x1a0
    1ae4:	000001bc 	dsll32 $zero,$zero,0x6
    1ae8:	00000128 	0x128
    1aec:	000002a4 	0x2a4
    1af0:	0000026c 	0x26c
    1af4:	0000026c 	0x26c
    1af8:	0000013d 	0x13d
    1afc:	000000e0 	0xe0
    1b00:	000000e0 	0xe0
    1b04:	0000015f 	0x15f
    1b08:	0000021c 	0x21c
    1b0c:	0000021c 	0x21c
    1b10:	0000021c 	0x21c
    1b14:	00000120 	0x120
    1b18:	000000a9 	0xa9
    1b1c:	000000a9 	0xa9
    1b20:	0000020f 	0x20f
    1b24:	0000025e 	0x25e
    1b28:	0000020f 	0x20f
    1b2c:	00000185 	0x185
    1b30:	00000185 	0x185
    1b34:	00000185 	0x185
    1b38:	0000031c 	0x31c
    1b3c:	000001c7 	0x1c7
    1b40:	000002d0 	0x2d0
    1b44:	000001c7 	0x1c7
    1b48:	000002d0 	0x2d0
    1b4c:	0000016f 	0x16f
    1b50:	000002e9 	0x2e9
    1b54:	0000016f 	0x16f
    1b58:	00000166 	0x166
    1b5c:	00000166 	0x166
    1b60:	00000248 	0x248
    1b64:	00000248 	0x248
    1b68:	0000010f 	0x10f
    1b6c:	0000010f 	0x10f
    1b70:	00000355 	0x355
    1b74:	00000355 	0x355
    1b78:	00000314 	0x314
    1b7c:	00000193 	0x193
    1b80:	00000213 	0x213
    1b84:	00000205 	0x205
    1b88:	00000205 	0x205
    1b8c:	00000205 	0x205
    1b90:	000001cd 	break 0x0
    1b94:	0000022f 	0x22f
    1b98:	000001cd 	break 0x0
    1b9c:	00000307 	0x307
    1ba0:	00000166 	0x166
    1ba4:	00000166 	0x166
    1ba8:	0000014c 	syscall 0x5
    1bac:	0000014c 	syscall 0x5
    1bb0:	000002ac 	0x2ac
    1bb4:	000002ac 	0x2ac
    1bb8:	000002ac 	0x2ac
    1bbc:	00000256 	0x256
    1bc0:	000001be 	dsrl32 $zero,$zero,0x6
    1bc4:	0000008f 	0x8f
    1bc8:	00000137 	0x137
    1bcc:	0000007d 	0x7d
    1bd0:	00000137 	0x137
    1bd4:	000002e7 	0x2e7
    1bd8:	000002e7 	0x2e7
    1bdc:	000003a5 	0x3a5
    1be0:	0000022d 	0x22d
    1be4:	0000031f 	0x31f
    1be8:	0000022d 	0x22d
    1bec:	0000022d 	0x22d
    1bf0:	0000022d 	0x22d
    1bf4:	00000229 	0x229
    1bf8:	0000031c 	0x31c
    1bfc:	00000288 	0x288
    1c00:	00000288 	0x288
    1c04:	00000288 	0x288
    1c08:	0000037b 	dsra $zero,$zero,0xd
    1c0c:	0000037b 	dsra $zero,$zero,0xd
    1c10:	0000029a 	0x29a
    1c14:	0000011f 	0x11f
    1c18:	00000202 	srl $zero,$zero,0x8
    1c1c:	00000031 	tgeu $zero,$zero
    1c20:	00000202 	srl $zero,$zero,0x8
    1c24:	00000056 	0x56
    1c28:	0000022d 	0x22d
    1c2c:	0000005f 	0x5f
    1c30:	00000355 	0x355
    1c34:	000001b9 	0x1b9
    1c38:	000001b9 	0x1b9
    1c3c:	000001b9 	0x1b9
    1c40:	000001b8 	dsll $zero,$zero,0x6
    1c44:	0000024b 	0x24b
    1c48:	00000266 	0x266
    1c4c:	00000266 	0x266
    1c50:	0000018c 	syscall 0x6
    1c54:	0000017e 	dsrl32 $zero,$zero,0x5
    1c58:	00000118 	0x118
    1c5c:	00000118 	0x118
    1c60:	00000011 	mthi $zero
    1c64:	00000328 	0x328
    1c68:	000000aa 	0xaa
    1c6c:	00000333 	tltu $zero,$zero
    1c70:	00000123 	0x123
    1c74:	00000158 	0x158
    1c78:	00000158 	0x158
    1c7c:	0000017c 	dsll32 $zero,$zero,0x5
    1c80:	000001c2 	srl $zero,$zero,0x7
    1c84:	00000200 	sll $zero,$zero,0x8
    1c88:	00000200 	sll $zero,$zero,0x8
    1c8c:	00000200 	sll $zero,$zero,0x8
    1c90:	00000395 	0x395
    1c94:	00000395 	0x395
    1c98:	0000021b 	0x21b
    1c9c:	0000021b 	0x21b
    1ca0:	00000328 	0x328
    1ca4:	00000372 	tlt $zero,$zero
    1ca8:	00000377 	0x377
    1cac:	00000372 	tlt $zero,$zero
    1cb0:	00000219 	0x219
    1cb4:	00000219 	0x219
    1cb8:	00000264 	0x264
    1cbc:	000002bd 	0x2bd
    1cc0:	000002bd 	0x2bd
    1cc4:	000002bd 	0x2bd
    1cc8:	000001df 	0x1df
    1ccc:	000001df 	0x1df
    1cd0:	000001df 	0x1df
    1cd4:	00000237 	0x237
    1cd8:	00000097 	0x97
    1cdc:	00000016 	dsrlv $zero,$zero,$zero
    1ce0:	00000016 	dsrlv $zero,$zero,$zero
    1ce4:	00000238 	dsll $zero,$zero,0x8
    1ce8:	00000238 	dsll $zero,$zero,0x8
    1cec:	00000238 	dsll $zero,$zero,0x8
    1cf0:	00000299 	0x299
    1cf4:	00000299 	0x299
    1cf8:	000001a7 	0x1a7
    1cfc:	000001a7 	0x1a7
    1d00:	000001b2 	tlt $zero,$zero
    1d04:	000001b2 	tlt $zero,$zero
    1d08:	00000118 	0x118
    1d0c:	0000009e 	0x9e
    1d10:	00000118 	0x118
    1d14:	00000054 	0x54
    1d18:	0000018b 	0x18b
    1d1c:	000000f7 	0xf7
    1d20:	000002b0 	tge $zero,$zero
    1d24:	000000f7 	0xf7
    1d28:	000001dc 	0x1dc
    1d2c:	000001b3 	tltu $zero,$zero
    1d30:	000001dc 	0x1dc
    1d34:	00000318 	0x318
    1d38:	00000318 	0x318
    1d3c:	00000318 	0x318
    1d40:	000002d9 	0x2d9
    1d44:	000001e6 	0x1e6
    1d48:	00000109 	0x109
    1d4c:	0000019e 	0x19e
    1d50:	000000ec 	0xec
    1d54:	00000171 	tgeu $zero,$zero
    1d58:	000000ec 	0xec
    1d5c:	00000171 	tgeu $zero,$zero
    1d60:	000000d6 	0xd6
    1d64:	00000206 	0x206
    1d68:	000000b4 	teq $zero,$zero
    1d6c:	00000206 	0x206
    1d70:	000001f7 	0x1f7
    1d74:	000002aa 	0x2aa
    1d78:	00000254 	0x254
    1d7c:	00000254 	0x254
    1d80:	0000011c 	0x11c
    1d84:	00000108 	0x108
    1d88:	00000108 	0x108
    1d8c:	000001f3 	tltu $zero,$zero
    1d90:	000001f3 	tltu $zero,$zero
    1d94:	0000015a 	0x15a
    1d98:	0000015a 	0x15a
    1d9c:	00000257 	0x257
    1da0:	00000257 	0x257
    1da4:	000000d7 	0xd7
    1da8:	000000d7 	0xd7
    1dac:	000002db 	0x2db
    1db0:	000002db 	0x2db
    1db4:	000002b0 	tge $zero,$zero
    1db8:	00000292 	0x292
    1dbc:	0000026b 	0x26b
    1dc0:	000000fb 	dsra $zero,$zero,0x3
    1dc4:	000000fb 	dsra $zero,$zero,0x3
    1dc8:	00000083 	sra $zero,$zero,0x2
    1dcc:	0000022b 	0x22b
    1dd0:	0000022b 	0x22b
    1dd4:	0000022b 	0x22b
    1dd8:	0000029b 	0x29b
    1ddc:	00000210 	0x210
    1de0:	00000210 	0x210
    1de4:	00000210 	0x210
    1de8:	000001e7 	0x1e7
    1dec:	000001e7 	0x1e7
    1df0:	000001e7 	0x1e7
    1df4:	000002f1 	tgeu $zero,$zero
    1df8:	000002f1 	tgeu $zero,$zero
    1dfc:	0000011f 	0x11f
    1e00:	0000011f 	0x11f
    1e04:	00000272 	tlt $zero,$zero
    1e08:	00000272 	tlt $zero,$zero
    1e0c:	00000130 	tge $zero,$zero
    1e10:	0000000e 	0xe
    1e14:	00000130 	tge $zero,$zero
    1e18:	00000193 	0x193
    1e1c:	000002dd 	0x2dd
    1e20:	00000193 	0x193
    1e24:	000002dd 	0x2dd
    1e28:	000002bf 	dsra32 $zero,$zero,0xa
    1e2c:	000002bf 	dsra32 $zero,$zero,0xa
    1e30:	000002bf 	dsra32 $zero,$zero,0xa
    1e34:	000002d2 	0x2d2
    1e38:	00000332 	tlt $zero,$zero
    1e3c:	000002d2 	0x2d2
    1e40:	00000196 	0x196
    1e44:	00000196 	0x196
    1e48:	0000036a 	0x36a
    1e4c:	0000036a 	0x36a
    1e50:	00000358 	0x358
    1e54:	000002ec 	0x2ec
    1e58:	000002ec 	0x2ec
    1e5c:	0000005b 	0x5b
    1e60:	00000056 	0x56
    1e64:	0000005b 	0x5b
    1e68:	0000017a 	dsrl $zero,$zero,0x5
    1e6c:	0000017a 	dsrl $zero,$zero,0x5
    1e70:	00000294 	0x294
    1e74:	00000069 	0x69
    1e78:	00000099 	0x99
    1e7c:	00000099 	0x99
    1e80:	00000099 	0x99
    1e84:	0000017d 	0x17d
    1e88:	00000079 	0x79
    1e8c:	0000028b 	0x28b
    1e90:	0000019c 	0x19c
    1e94:	00000339 	0x339
    1e98:	0000019c 	0x19c
    1e9c:	00000164 	0x164
    1ea0:	000000ec 	0xec
    1ea4:	00000094 	0x94
    1ea8:	00000094 	0x94
    1eac:	00000094 	0x94
    1eb0:	000001a7 	0x1a7
    1eb4:	0000008c 	syscall 0x2
    1eb8:	000000d8 	0xd8
    1ebc:	000000d8 	0xd8
    1ec0:	0000026d 	0x26d
    1ec4:	0000026d 	0x26d
    1ec8:	00000169 	0x169
    1ecc:	00000000 	nop
Disassembly of section .reginfo:

00001ed0 <.reginfo>:
    1ed0:	a0070ffc 	sb $a3,4092($zero)
    1ed4:	00000000 	nop
    1ed8:	00000000 	nop
    1edc:	00000000 	nop
    1ee0:	00000000 	nop
    1ee4:	00009ec0 	sll $s3,$zero,0x1b
