
build/qsort/a.out:     file format elf32-bigmips

Disassembly of section .text:

00001000 <__start>:
    1000:	27bdffe8 	addiu $sp,$sp,-24
    1004:	afbf0010 	sw $ra,16($sp)
    1008:	0c0004c0 	jal 1300 <main>
    100c:	4082a800 	mtc0 $v0,$21
    1010:	08000404 	j 1010 <__start+10>
    1014:	00000000 	nop
    1018:	00000000 	nop
    101c:	00000000 	nop

00001020 <printInt>:
    1020:	40849000 	mtc0 $a0,$18
    1024:	03e00008 	jr $ra
    1028:	00000000 	nop

0000102c <printChar>:
    102c:	40849800 	mtc0 $a0,$19
    1030:	03e00008 	jr $ra
    1034:	00000000 	nop

00001038 <printStr>:
    1038:	27bdffe0 	addiu $sp,$sp,-32
    103c:	afb00010 	sw $s0,16($sp)
    1040:	00808021 	move $s0,$a0
    1044:	afb20018 	sw $s2,24($sp)
    1048:	24120018 	li $s2,24
    104c:	afb10014 	sw $s1,20($sp)
    1050:	241100ff 	li $s1,255
    1054:	afbf001c 	sw $ra,28($sp)
    1058:	8e020000 	lw $v0,0($s0)
    105c:	32030003 	andi $v1,$s0,0x3
    1060:	000318c0 	sll $v1,$v1,0x3
    1064:	02431823 	subu $v1,$s2,$v1
    1068:	00712004 	sllv $a0,$s1,$v1
    106c:	00441024 	and $v0,$v0,$a0
    1070:	00622006 	srlv $a0,$v0,$v1
    1074:	10800003 	beqz $a0,1084 <printStr+4c>
    1078:	0c00040b 	jal 102c <printChar>
    107c:	26100001 	addiu $s0,$s0,1
    1080:	08000416 	j 1058 <printStr+20>
    1084:	8fbf001c 	lw $ra,28($sp)
    1088:	8fb20018 	lw $s2,24($sp)
    108c:	8fb10014 	lw $s1,20($sp)
    1090:	8fb00010 	lw $s0,16($sp)
    1094:	27bd0020 	addiu $sp,$sp,32
    1098:	03e00008 	jr $ra
    109c:	00000000 	nop

000010a0 <getTime>:
    10a0:	40025000 	mfc0 $v0,$10
    10a4:	03e00008 	jr $ra

000010a8 <getInsts>:
    10a8:	40025800 	mfc0 $v0,$11
    10ac:	03e00008 	jr $ra

000010b0 <verify>:
    10b0:	00003821 	move $a3,$zero
    10b4:	1880000a 	blez $a0,10e0 <verify+30>
    10b8:	8ca30000 	lw $v1,0($a1)
    10bc:	8cc20000 	lw $v0,0($a2)
    10c0:	10620002 	beq $v1,$v0,10cc <verify+1c>
    10c4:	00001021 	move $v0,$zero
    10c8:	03e00008 	jr $ra
    10cc:	24c60004 	addiu $a2,$a2,4
    10d0:	24a50004 	addiu $a1,$a1,4
    10d4:	24e70001 	addiu $a3,$a3,1
    10d8:	00e4102a 	slt $v0,$a3,$a0
    10dc:	1440fff6 	bnez $v0,10b8 <verify+8>
    10e0:	24020001 	li $v0,1
    10e4:	03e00008 	jr $ra

000010e8 <sort>:
    10e8:	27bdff00 	addiu $sp,$sp,-256
    10ec:	00806821 	move $t5,$a0
    10f0:	240c0001 	li $t4,1
    10f4:	0000c021 	move $t8,$zero
    10f8:	27affffc 	addiu $t7,$sp,-4
    10fc:	03a07021 	move $t6,$sp
    1100:	01ac1023 	subu $v0,$t5,$t4
    1104:	28420007 	slti $v0,$v0,7
    1108:	10400026 	beqz $v0,11a4 <sort+bc>
    110c:	25880001 	addiu $t0,$t4,1
    1110:	01a8102a 	slt $v0,$t5,$t0
    1114:	1440001b 	bnez $v0,1184 <sort+9c>
    1118:	00081080 	sll $v0,$t0,0x2
    111c:	2442fffc 	addiu $v0,$v0,-4
    1120:	00454821 	addu $t1,$v0,$a1
    1124:	8d2b0000 	lw $t3,0($t1)
    1128:	2507ffff 	addiu $a3,$t0,-1
    112c:	00ec102a 	slt $v0,$a3,$t4
    1130:	1440000d 	bnez $v0,1168 <sort+80>
    1134:	00071080 	sll $v0,$a3,0x2
    1138:	00453021 	addu $a2,$v0,$a1
    113c:	2442fffc 	addiu $v0,$v0,-4
    1140:	00452021 	addu $a0,$v0,$a1
    1144:	8c830000 	lw $v1,0($a0)
    1148:	0163102a 	slt $v0,$t3,$v1
    114c:	10400006 	beqz $v0,1168 <sort+80>
    1150:	acc30000 	sw $v1,0($a2)
    1154:	24c6fffc 	addiu $a2,$a2,-4
    1158:	2484fffc 	addiu $a0,$a0,-4
    115c:	24e7ffff 	addiu $a3,$a3,-1
    1160:	00ec102a 	slt $v0,$a3,$t4
    1164:	1040fff7 	beqz $v0,1144 <sort+5c>
    1168:	00071080 	sll $v0,$a3,0x2
    116c:	00451021 	addu $v0,$v0,$a1
    1170:	ac4b0000 	sw $t3,0($v0)
    1174:	25290004 	addiu $t1,$t1,4
    1178:	25080001 	addiu $t0,$t0,1
    117c:	01a8102a 	slt $v0,$t5,$t0
    1180:	1040ffe8 	beqz $v0,1124 <sort+3c>
    1184:	1300005c 	beqz $t8,12f8 <sort+210>
    1188:	8dcd0000 	lw $t5,0($t6)
    118c:	25cefffc 	addiu $t6,$t6,-4
    1190:	8dcc0000 	lw $t4,0($t6)
    1194:	25effff8 	addiu $t7,$t7,-8
    1198:	25cefffc 	addiu $t6,$t6,-4
    119c:	2718fffe 	addiu $t8,$t8,-2
    11a0:	08000440 	j 1100 <sort+18>
    11a4:	018d1021 	addu $v0,$t4,$t5
    11a8:	00021043 	sra $v0,$v0,0x1
    11ac:	00021080 	sll $v0,$v0,0x2
    11b0:	00451021 	addu $v0,$v0,$a1
    11b4:	000c1880 	sll $v1,$t4,0x2
    11b8:	00653021 	addu $a2,$v1,$a1
    11bc:	8cc30000 	lw $v1,0($a2)
    11c0:	8c44fffc 	lw $a0,-4($v0)
    11c4:	ac43fffc 	sw $v1,-4($v0)
    11c8:	8cc8fffc 	lw $t0,-4($a2)
    11cc:	000d1880 	sll $v1,$t5,0x2
    11d0:	00653821 	addu $a3,$v1,$a1
    11d4:	acc40000 	sw $a0,0($a2)
    11d8:	8ce4fffc 	lw $a0,-4($a3)
    11dc:	0088102a 	slt $v0,$a0,$t0
    11e0:	10400002 	beqz $v0,11ec <sort+104>
    11e4:	acc4fffc 	sw $a0,-4($a2)
    11e8:	ace8fffc 	sw $t0,-4($a3)
    11ec:	8cc80000 	lw $t0,0($a2)
    11f0:	8ce4fffc 	lw $a0,-4($a3)
    11f4:	0088102a 	slt $v0,$a0,$t0
    11f8:	10400002 	beqz $v0,1204 <sort+11c>
    11fc:	acc40000 	sw $a0,0($a2)
    1200:	ace8fffc 	sw $t0,-4($a3)
    1204:	8cc7fffc 	lw $a3,-4($a2)
    1208:	8cc40000 	lw $a0,0($a2)
    120c:	0087102a 	slt $v0,$a0,$a3
    1210:	10400002 	beqz $v0,121c <sort+134>
    1214:	acc4fffc 	sw $a0,-4($a2)
    1218:	acc70000 	sw $a3,0($a2)
    121c:	01a04021 	move $t0,$t5
    1220:	8ccb0000 	lw $t3,0($a2)
    1224:	2463fffc 	addiu $v1,$v1,-4
    1228:	00654821 	addu $t1,$v1,$a1
    122c:	25870001 	addiu $a3,$t4,1
    1230:	000c1080 	sll $v0,$t4,0x2
    1234:	00453021 	addu $a2,$v0,$a1
    1238:	00405021 	move $t2,$v0
    123c:	01452021 	addu $a0,$t2,$a1
    1240:	24840004 	addiu $a0,$a0,4
    1244:	24c60004 	addiu $a2,$a2,4
    1248:	8c820000 	lw $v0,0($a0)
    124c:	254a0004 	addiu $t2,$t2,4
    1250:	24e70001 	addiu $a3,$a3,1
    1254:	004b102a 	slt $v0,$v0,$t3
    1258:	1440fff9 	bnez $v0,1240 <sort+158>
    125c:	00652021 	addu $a0,$v1,$a1
    1260:	2484fffc 	addiu $a0,$a0,-4
    1264:	2529fffc 	addiu $t1,$t1,-4
    1268:	8c820000 	lw $v0,0($a0)
    126c:	2463fffc 	addiu $v1,$v1,-4
    1270:	2508ffff 	addiu $t0,$t0,-1
    1274:	0162102a 	slt $v0,$t3,$v0
    1278:	1440fff9 	bnez $v0,1260 <sort+178>
    127c:	0107102a 	slt $v0,$t0,$a3
    1280:	14400005 	bnez $v0,1298 <sort+1b0>
    1284:	8d220000 	lw $v0,0($t1)
    1288:	8cc40000 	lw $a0,0($a2)
    128c:	acc20000 	sw $v0,0($a2)
    1290:	ad240000 	sw $a0,0($t1)
    1294:	0800048f 	j 123c <sort+154>
    1298:	25ef0008 	addiu $t7,$t7,8
    129c:	25ce0008 	addiu $t6,$t6,8
    12a0:	27180002 	addiu $t8,$t8,2
    12a4:	00081880 	sll $v1,$t0,0x2
    12a8:	00651821 	addu $v1,$v1,$a1
    12ac:	8c64fffc 	lw $a0,-4($v1)
    12b0:	000c1080 	sll $v0,$t4,0x2
    12b4:	00451021 	addu $v0,$v0,$a1
    12b8:	ac440000 	sw $a0,0($v0)
    12bc:	01a71023 	subu $v0,$t5,$a3
    12c0:	24420001 	addiu $v0,$v0,1
    12c4:	ac6bfffc 	sw $t3,-4($v1)
    12c8:	010c1823 	subu $v1,$t0,$t4
    12cc:	0043102a 	slt $v0,$v0,$v1
    12d0:	14400004 	bnez $v0,12e4 <sort+1fc>
    12d4:	adcd0000 	sw $t5,0($t6)
    12d8:	250dffff 	addiu $t5,$t0,-1
    12dc:	ade70000 	sw $a3,0($t7)
    12e0:	08000440 	j 1100 <sort+18>
    12e4:	2502ffff 	addiu $v0,$t0,-1
    12e8:	adc20000 	sw $v0,0($t6)
    12ec:	adec0000 	sw $t4,0($t7)
    12f0:	00e06021 	move $t4,$a3
    12f4:	08000440 	j 1100 <sort+18>
    12f8:	27bd0100 	addiu $sp,$sp,256
    12fc:	03e00008 	jr $ra

00001300 <main>:
    1300:	27bdfbe0 	addiu $sp,$sp,-1056
    1304:	00002821 	move $a1,$zero
    1308:	27a40010 	addiu $a0,$sp,16
    130c:	3c030000 	lui $v1,0x0
    1310:	246313f0 	addiu $v1,$v1,5104
    1314:	afbf0418 	sw $ra,1048($sp)
    1318:	afb10414 	sw $s1,1044($sp)
    131c:	afb00410 	sw $s0,1040($sp)
    1320:	8c620000 	lw $v0,0($v1)
    1324:	24630004 	addiu $v1,$v1,4
    1328:	24a50001 	addiu $a1,$a1,1
    132c:	ac820000 	sw $v0,0($a0)
    1330:	24840004 	addiu $a0,$a0,4
    1334:	28a200fa 	slti $v0,$a1,250
    1338:	1440fff9 	bnez $v0,1320 <main+20>
    133c:	0c000428 	jal 10a0 <getTime>
    1340:	00408021 	move $s0,$v0
    1344:	0c00042a 	jal 10a8 <getInsts>
    1348:	00408821 	move $s1,$v0
    134c:	240400fa 	li $a0,250
    1350:	27a50010 	addiu $a1,$sp,16
    1354:	0c00043a 	jal 10e8 <sort>
    1358:	0c000428 	jal 10a0 <getTime>
    135c:	00508023 	subu $s0,$v0,$s0
    1360:	0c00042a 	jal 10a8 <getInsts>
    1364:	00518823 	subu $s1,$v0,$s1
    1368:	3c040000 	lui $a0,0x0
    136c:	248413d0 	addiu $a0,$a0,5072
    1370:	0c00040e 	jal 1038 <printStr>
    1374:	02002021 	move $a0,$s0
    1378:	0c000408 	jal 1020 <printInt>
    137c:	2404000a 	li $a0,10
    1380:	0c00040b 	jal 102c <printChar>
    1384:	3c040000 	lui $a0,0x0
    1388:	248413dc 	addiu $a0,$a0,5084
    138c:	0c00040e 	jal 1038 <printStr>
    1390:	02202021 	move $a0,$s1
    1394:	0c000408 	jal 1020 <printInt>
    1398:	2404000a 	li $a0,10
    139c:	0c00040b 	jal 102c <printChar>
    13a0:	240400fa 	li $a0,250
    13a4:	27a50010 	addiu $a1,$sp,16
    13a8:	3c060000 	lui $a2,0x0
    13ac:	24c617d8 	addiu $a2,$a2,6104
    13b0:	0c00042c 	jal 10b0 <verify>
    13b4:	8fbf0418 	lw $ra,1048($sp)
    13b8:	8fb10414 	lw $s1,1044($sp)
    13bc:	8fb00410 	lw $s0,1040($sp)
    13c0:	2c420001 	sltiu $v0,$v0,1
    13c4:	27bd0420 	addiu $sp,$sp,1056
    13c8:	03e00008 	jr $ra
    13cc:	00000000 	nop
Disassembly of section .rodata:

000013d0 <_frdata>:
    13d0:	4379636c 	c0 0x179636c
    13d4:	6573203d 	daddiu $s3,$t3,8253
    13d8:	20000000 	addi $zero,$zero,0
    13dc:	496e7374 	0x496e7374
    13e0:	7320203d 	addciu $zero,$t9,8253
    13e4:	20000000 	addi $zero,$zero,0
    13e8:	00000000 	nop
    13ec:	00000000 	nop
Disassembly of section .aibpointers:
Disassembly of section .data:

000013f0 <_fdata>:
    13f0:	00000029 	dmadd16 $zero,$zero
    13f4:	000001c6 	0x1c6
    13f8:	00000341 	0x341
    13fc:	0000014f 	0x14f
    1400:	00000234 	teq $zero,$zero
    1404:	00000001 	movf $zero,$zero,$fcc0
    1408:	000000bb 	dsra $zero,$zero,0x2
    140c:	000003dd 	0x3dd
    1410:	000002ed 	0x2ed
    1414:	0000016d 	0x16d
    1418:	0000015e 	0x15e
    141c:	0000023c 	dsll32 $zero,$zero,0x8
    1420:	00000084 	0x84
    1424:	00000040 	sll $zero,$zero,0x1
    1428:	000003b5 	0x3b5
    142c:	00000099 	0x99
    1430:	00000248 	0x248
    1434:	000000d8 	0xd8
    1438:	00000325 	0x325
    143c:	0000008c 	syscall 0x2
    1440:	0000026d 	0x26d
    1444:	000000d2 	0xd2
    1448:	00000006 	srlv $zero,$zero,$zero
    144c:	0000023c 	dsll32 $zero,$zero,0x8
    1450:	000003a3 	0x3a3
    1454:	00000153 	0x153
    1458:	0000037a 	dsrl $zero,$zero,0xd
    145c:	00000251 	0x251
    1460:	00000188 	0x188
    1464:	00000382 	srl $zero,$zero,0xe
    1468:	000002b6 	tne $zero,$zero
    146c:	000000e4 	0xe4
    1470:	000003c1 	0x3c1
    1474:	0000000c 	syscall
    1478:	0000006e 	0x6e
    147c:	00000373 	tltu $zero,$zero
    1480:	00000074 	teq $zero,$zero
    1484:	000002ee 	0x2ee
    1488:	00000128 	0x128
    148c:	00000286 	0x286
    1490:	000001aa 	0x1aa
    1494:	000001f4 	teq $zero,$zero
    1498:	0000013a 	dsrl $zero,$zero,0x4
    149c:	000001b4 	teq $zero,$zero
    14a0:	00000293 	0x293
    14a4:	000002bd 	0x2bd
    14a8:	00000306 	0x306
    14ac:	0000032c 	0x32c
    14b0:	0000013f 	dsra32 $zero,$zero,0x4
    14b4:	000003d5 	0x3d5
    14b8:	000002a6 	0x2a6
    14bc:	00000096 	0x96
    14c0:	0000036b 	0x36b
    14c4:	000002b8 	dsll $zero,$zero,0xa
    14c8:	00000178 	dsll $zero,$zero,0x5
    14cc:	00000234 	teq $zero,$zero
    14d0:	000001da 	0x1da
    14d4:	00000110 	0x110
    14d8:	000003aa 	0x3aa
    14dc:	00000102 	srl $zero,$zero,0x4
    14e0:	0000021b 	0x21b
    14e4:	00000287 	0x287
    14e8:	00000239 	0x239
    14ec:	000001fd 	0x1fd
    14f0:	000000cb 	0xcb
    14f4:	00000058 	0x58
    14f8:	00000118 	0x118
    14fc:	000002bf 	dsra32 $zero,$zero,0xa
    1500:	000002f7 	0x2f7
    1504:	0000029d 	0x29d
    1508:	0000025e 	0x25e
    150c:	00000177 	0x177
    1510:	000001ff 	dsra32 $zero,$zero,0x7
    1514:	00000227 	0x227
    1518:	00000291 	0x291
    151c:	000003a8 	0x3a8
    1520:	000000c3 	sra $zero,$zero,0x3
    1524:	00000250 	0x250
    1528:	00000051 	0x51
    152c:	00000239 	0x239
    1530:	0000010b 	0x10b
    1534:	000003b8 	dsll $zero,$zero,0xe
    1538:	000000e5 	0xe5
    153c:	00000320 	0x320
    1540:	00000151 	0x151
    1544:	00000248 	0x248
    1548:	000003b0 	tge $zero,$zero
    154c:	00000283 	sra $zero,$zero,0xa
    1550:	00000386 	0x386
    1554:	00000170 	tge $zero,$zero
    1558:	000000f1 	tgeu $zero,$zero
    155c:	000001e9 	0x1e9
    1560:	00000391 	0x391
    1564:	00000148 	0x148
    1568:	0000033a 	dsrl $zero,$zero,0xc
    156c:	00000139 	0x139
    1570:	000003a5 	0x3a5
    1574:	00000250 	0x250
    1578:	000003d9 	0x3d9
    157c:	00000184 	0x184
    1580:	000000c3 	sra $zero,$zero,0x3
    1584:	0000021f 	0x21f
    1588:	000003c0 	sll $zero,$zero,0xf
    158c:	00000289 	0x289
    1590:	00000236 	tne $zero,$zero
    1594:	000003d3 	0x3d3
    1598:	0000015e 	0x15e
    159c:	000003e5 	0x3e5
    15a0:	00000289 	0x289
    15a4:	0000032e 	0x32e
    15a8:	00000291 	0x291
    15ac:	0000004f 	0x4f
    15b0:	000000b5 	0xb5
    15b4:	000000d0 	0xd0
    15b8:	0000006f 	0x6f
    15bc:	000003e6 	0x3e6
    15c0:	0000035b 	0x35b
    15c4:	00000275 	0x275
    15c8:	00000041 	0x41
    15cc:	0000034f 	0x34f
    15d0:	00000120 	0x120
    15d4:	000002c0 	sll $zero,$zero,0xb
    15d8:	0000015d 	0x15d
    15dc:	000003e5 	0x3e5
    15e0:	0000008d 	break 0x0
    15e4:	000000fd 	0xfd
    15e8:	00000389 	0x389
    15ec:	000002cb 	0x2cb
    15f0:	00000376 	tne $zero,$zero
    15f4:	000001ae 	0x1ae
    15f8:	00000108 	0x108
    15fc:	0000019f 	0x19f
    1600:	00000240 	sll $zero,$zero,0x9
    1604:	0000021a 	0x21a
    1608:	000003d3 	0x3d3
    160c:	000002bc 	dsll32 $zero,$zero,0xa
    1610:	000002f9 	0x2f9
    1614:	00000004 	sllv $zero,$zero,$zero
    1618:	000000f1 	tgeu $zero,$zero
    161c:	000001ee 	0x1ee
    1620:	000001de 	0x1de
    1624:	00000064 	0x64
    1628:	000001f3 	tltu $zero,$zero
    162c:	00000360 	0x360
    1630:	00000193 	0x193
    1634:	000002b5 	0x2b5
    1638:	000000de 	0xde
    163c:	000001a0 	0x1a0
    1640:	000001bc 	dsll32 $zero,$zero,0x6
    1644:	00000128 	0x128
    1648:	000002d1 	0x2d1
    164c:	0000011d 	0x11d
    1650:	000002a4 	0x2a4
    1654:	0000026c 	0x26c
    1658:	0000013d 	0x13d
    165c:	0000004e 	0x4e
    1660:	000000e0 	0xe0
    1664:	0000015f 	0x15f
    1668:	000003a9 	0x3a9
    166c:	0000021c 	0x21c
    1670:	00000120 	0x120
    1674:	00000286 	0x286
    1678:	00000077 	0x77
    167c:	000000a9 	0xa9
    1680:	00000267 	0x267
    1684:	0000020f 	0x20f
    1688:	0000025e 	0x25e
    168c:	00000121 	0x121
    1690:	00000185 	0x185
    1694:	0000031c 	0x31c
    1698:	0000015f 	0x15f
    169c:	00000321 	0x321
    16a0:	000001c7 	0x1c7
    16a4:	000002d0 	0x2d0
    16a8:	00000116 	0x116
    16ac:	000002f6 	tne $zero,$zero
    16b0:	0000016f 	0x16f
    16b4:	000002e9 	0x2e9
    16b8:	00000166 	0x166
    16bc:	0000005c 	0x5c
    16c0:	00000248 	0x248
    16c4:	000003dd 	0x3dd
    16c8:	0000003e 	dsrl32 $zero,$zero,0x0
    16cc:	0000010f 	0x10f
    16d0:	000003d9 	0x3d9
    16d4:	00000355 	0x355
    16d8:	00000193 	0x193
    16dc:	00000314 	0x314
    16e0:	0000015a 	0x15a
    16e4:	00000213 	0x213
    16e8:	00000205 	0x205
    16ec:	000000de 	0xde
    16f0:	0000022f 	0x22f
    16f4:	000001cd 	break 0x0
    16f8:	0000038c 	syscall 0xe
    16fc:	000000f1 	tgeu $zero,$zero
    1700:	00000307 	0x307
    1704:	00000166 	0x166
    1708:	000000ff 	dsra32 $zero,$zero,0x3
    170c:	0000014c 	syscall 0x5
    1710:	0000030a 	0x30a
    1714:	000002ac 	0x2ac
    1718:	00000256 	0x256
    171c:	000002e4 	0x2e4
    1720:	0000008f 	0x8f
    1724:	000001be 	dsrl32 $zero,$zero,0x6
    1728:	00000021 	move $zero,$zero
    172c:	00000137 	0x137
    1730:	0000007d 	0x7d
    1734:	000002e7 	0x2e7
    1738:	000003ad 	0x3ad
    173c:	0000022d 	0x22d
    1740:	000003a5 	0x3a5
    1744:	000001df 	0x1df
    1748:	0000031f 	0x31f
    174c:	0000022d 	0x22d
    1750:	00000229 	0x229
    1754:	0000039d 	0x39d
    1758:	000001af 	0x1af
    175c:	0000031c 	0x31c
    1760:	00000288 	0x288
    1764:	00000165 	0x165
    1768:	000003b8 	dsll $zero,$zero,0xe
    176c:	0000037b 	dsra $zero,$zero,0xd
    1770:	0000011f 	0x11f
    1774:	0000029a 	0x29a
    1778:	00000013 	mtlo $zero
    177c:	00000202 	srl $zero,$zero,0x8
    1780:	00000031 	tgeu $zero,$zero
    1784:	0000022d 	0x22d
    1788:	00000056 	0x56
    178c:	00000366 	0x366
    1790:	0000005f 	0x5f
    1794:	00000355 	0x355
    1798:	000001b9 	0x1b9
    179c:	000001b8 	dsll $zero,$zero,0x6
    17a0:	0000024b 	0x24b
    17a4:	0000003d 	0x3d
    17a8:	00000266 	0x266
    17ac:	000002a6 	0x2a6
    17b0:	0000017e 	dsrl32 $zero,$zero,0x5
    17b4:	0000018c 	syscall 0x6
    17b8:	00000118 	0x118
    17bc:	00000009 	jalr $zero,$zero
    17c0:	00000328 	0x328
    17c4:	00000011 	mthi $zero
    17c8:	000003cb 	0x3cb
    17cc:	000000aa 	0xaa
    17d0:	00000333 	tltu $zero,$zero
    17d4:	00000123 	0x123

000017d8 <verify_data>:
    17d8:	00000001 	movf $zero,$zero,$fcc0
    17dc:	00000004 	sllv $zero,$zero,$zero
    17e0:	00000006 	srlv $zero,$zero,$zero
    17e4:	00000009 	jalr $zero,$zero
    17e8:	0000000c 	syscall
    17ec:	00000011 	mthi $zero
    17f0:	00000013 	mtlo $zero
    17f4:	00000021 	move $zero,$zero
    17f8:	00000029 	dmadd16 $zero,$zero
    17fc:	00000031 	tgeu $zero,$zero
    1800:	0000003d 	0x3d
    1804:	0000003e 	dsrl32 $zero,$zero,0x0
    1808:	00000040 	sll $zero,$zero,0x1
    180c:	00000041 	0x41
    1810:	0000004e 	0x4e
    1814:	0000004f 	0x4f
    1818:	00000051 	0x51
    181c:	00000056 	0x56
    1820:	00000058 	0x58
    1824:	0000005c 	0x5c
    1828:	0000005f 	0x5f
    182c:	00000064 	0x64
    1830:	0000006e 	0x6e
    1834:	0000006f 	0x6f
    1838:	00000074 	teq $zero,$zero
    183c:	00000077 	0x77
    1840:	0000007d 	0x7d
    1844:	00000084 	0x84
    1848:	0000008c 	syscall 0x2
    184c:	0000008d 	break 0x0
    1850:	0000008f 	0x8f
    1854:	00000096 	0x96
    1858:	00000099 	0x99
    185c:	000000a9 	0xa9
    1860:	000000aa 	0xaa
    1864:	000000b5 	0xb5
    1868:	000000bb 	dsra $zero,$zero,0x2
    186c:	000000c3 	sra $zero,$zero,0x3
    1870:	000000c3 	sra $zero,$zero,0x3
    1874:	000000cb 	0xcb
    1878:	000000d0 	0xd0
    187c:	000000d2 	0xd2
    1880:	000000d8 	0xd8
    1884:	000000de 	0xde
    1888:	000000de 	0xde
    188c:	000000e0 	0xe0
    1890:	000000e4 	0xe4
    1894:	000000e5 	0xe5
    1898:	000000f1 	tgeu $zero,$zero
    189c:	000000f1 	tgeu $zero,$zero
    18a0:	000000f1 	tgeu $zero,$zero
    18a4:	000000fd 	0xfd
    18a8:	000000ff 	dsra32 $zero,$zero,0x3
    18ac:	00000102 	srl $zero,$zero,0x4
    18b0:	00000108 	0x108
    18b4:	0000010b 	0x10b
    18b8:	0000010f 	0x10f
    18bc:	00000110 	0x110
    18c0:	00000116 	0x116
    18c4:	00000118 	0x118
    18c8:	00000118 	0x118
    18cc:	0000011d 	0x11d
    18d0:	0000011f 	0x11f
    18d4:	00000120 	0x120
    18d8:	00000120 	0x120
    18dc:	00000121 	0x121
    18e0:	00000123 	0x123
    18e4:	00000128 	0x128
    18e8:	00000128 	0x128
    18ec:	00000137 	0x137
    18f0:	00000139 	0x139
    18f4:	0000013a 	dsrl $zero,$zero,0x4
    18f8:	0000013d 	0x13d
    18fc:	0000013f 	dsra32 $zero,$zero,0x4
    1900:	00000148 	0x148
    1904:	0000014c 	syscall 0x5
    1908:	0000014f 	0x14f
    190c:	00000151 	0x151
    1910:	00000153 	0x153
    1914:	0000015a 	0x15a
    1918:	0000015d 	0x15d
    191c:	0000015e 	0x15e
    1920:	0000015e 	0x15e
    1924:	0000015f 	0x15f
    1928:	0000015f 	0x15f
    192c:	00000165 	0x165
    1930:	00000166 	0x166
    1934:	00000166 	0x166
    1938:	0000016d 	0x16d
    193c:	0000016f 	0x16f
    1940:	00000170 	tge $zero,$zero
    1944:	00000177 	0x177
    1948:	00000178 	dsll $zero,$zero,0x5
    194c:	0000017e 	dsrl32 $zero,$zero,0x5
    1950:	00000184 	0x184
    1954:	00000185 	0x185
    1958:	00000188 	0x188
    195c:	0000018c 	syscall 0x6
    1960:	00000193 	0x193
    1964:	00000193 	0x193
    1968:	0000019f 	0x19f
    196c:	000001a0 	0x1a0
    1970:	000001aa 	0x1aa
    1974:	000001ae 	0x1ae
    1978:	000001af 	0x1af
    197c:	000001b4 	teq $zero,$zero
    1980:	000001b8 	dsll $zero,$zero,0x6
    1984:	000001b9 	0x1b9
    1988:	000001bc 	dsll32 $zero,$zero,0x6
    198c:	000001be 	dsrl32 $zero,$zero,0x6
    1990:	000001c6 	0x1c6
    1994:	000001c7 	0x1c7
    1998:	000001cd 	break 0x0
    199c:	000001da 	0x1da
    19a0:	000001de 	0x1de
    19a4:	000001df 	0x1df
    19a8:	000001e9 	0x1e9
    19ac:	000001ee 	0x1ee
    19b0:	000001f3 	tltu $zero,$zero
    19b4:	000001f4 	teq $zero,$zero
    19b8:	000001fd 	0x1fd
    19bc:	000001ff 	dsra32 $zero,$zero,0x7
    19c0:	00000202 	srl $zero,$zero,0x8
    19c4:	00000205 	0x205
    19c8:	0000020f 	0x20f
    19cc:	00000213 	0x213
    19d0:	0000021a 	0x21a
    19d4:	0000021b 	0x21b
    19d8:	0000021c 	0x21c
    19dc:	0000021f 	0x21f
    19e0:	00000227 	0x227
    19e4:	00000229 	0x229
    19e8:	0000022d 	0x22d
    19ec:	0000022d 	0x22d
    19f0:	0000022d 	0x22d
    19f4:	0000022f 	0x22f
    19f8:	00000234 	teq $zero,$zero
    19fc:	00000234 	teq $zero,$zero
    1a00:	00000236 	tne $zero,$zero
    1a04:	00000239 	0x239
    1a08:	00000239 	0x239
    1a0c:	0000023c 	dsll32 $zero,$zero,0x8
    1a10:	0000023c 	dsll32 $zero,$zero,0x8
    1a14:	00000240 	sll $zero,$zero,0x9
    1a18:	00000248 	0x248
    1a1c:	00000248 	0x248
    1a20:	00000248 	0x248
    1a24:	0000024b 	0x24b
    1a28:	00000250 	0x250
    1a2c:	00000250 	0x250
    1a30:	00000251 	0x251
    1a34:	00000256 	0x256
    1a38:	0000025e 	0x25e
    1a3c:	0000025e 	0x25e
    1a40:	00000266 	0x266
    1a44:	00000267 	0x267
    1a48:	0000026c 	0x26c
    1a4c:	0000026d 	0x26d
    1a50:	00000275 	0x275
    1a54:	00000283 	sra $zero,$zero,0xa
    1a58:	00000286 	0x286
    1a5c:	00000286 	0x286
    1a60:	00000287 	0x287
    1a64:	00000288 	0x288
    1a68:	00000289 	0x289
    1a6c:	00000289 	0x289
    1a70:	00000291 	0x291
    1a74:	00000291 	0x291
    1a78:	00000293 	0x293
    1a7c:	0000029a 	0x29a
    1a80:	0000029d 	0x29d
    1a84:	000002a4 	0x2a4
    1a88:	000002a6 	0x2a6
    1a8c:	000002a6 	0x2a6
    1a90:	000002ac 	0x2ac
    1a94:	000002b5 	0x2b5
    1a98:	000002b6 	tne $zero,$zero
    1a9c:	000002b8 	dsll $zero,$zero,0xa
    1aa0:	000002bc 	dsll32 $zero,$zero,0xa
    1aa4:	000002bd 	0x2bd
    1aa8:	000002bf 	dsra32 $zero,$zero,0xa
    1aac:	000002c0 	sll $zero,$zero,0xb
    1ab0:	000002cb 	0x2cb
    1ab4:	000002d0 	0x2d0
    1ab8:	000002d1 	0x2d1
    1abc:	000002e4 	0x2e4
    1ac0:	000002e7 	0x2e7
    1ac4:	000002e9 	0x2e9
    1ac8:	000002ed 	0x2ed
    1acc:	000002ee 	0x2ee
    1ad0:	000002f6 	tne $zero,$zero
    1ad4:	000002f7 	0x2f7
    1ad8:	000002f9 	0x2f9
    1adc:	00000306 	0x306
    1ae0:	00000307 	0x307
    1ae4:	0000030a 	0x30a
    1ae8:	00000314 	0x314
    1aec:	0000031c 	0x31c
    1af0:	0000031c 	0x31c
    1af4:	0000031f 	0x31f
    1af8:	00000320 	0x320
    1afc:	00000321 	0x321
    1b00:	00000325 	0x325
    1b04:	00000328 	0x328
    1b08:	0000032c 	0x32c
    1b0c:	0000032e 	0x32e
    1b10:	00000333 	tltu $zero,$zero
    1b14:	0000033a 	dsrl $zero,$zero,0xc
    1b18:	00000341 	0x341
    1b1c:	0000034f 	0x34f
    1b20:	00000355 	0x355
    1b24:	00000355 	0x355
    1b28:	0000035b 	0x35b
    1b2c:	00000360 	0x360
    1b30:	00000366 	0x366
    1b34:	0000036b 	0x36b
    1b38:	00000373 	tltu $zero,$zero
    1b3c:	00000376 	tne $zero,$zero
    1b40:	0000037a 	dsrl $zero,$zero,0xd
    1b44:	0000037b 	dsra $zero,$zero,0xd
    1b48:	00000382 	srl $zero,$zero,0xe
    1b4c:	00000386 	0x386
    1b50:	00000389 	0x389
    1b54:	0000038c 	syscall 0xe
    1b58:	00000391 	0x391
    1b5c:	0000039d 	0x39d
    1b60:	000003a3 	0x3a3
    1b64:	000003a5 	0x3a5
    1b68:	000003a5 	0x3a5
    1b6c:	000003a8 	0x3a8
    1b70:	000003a9 	0x3a9
    1b74:	000003aa 	0x3aa
    1b78:	000003ad 	0x3ad
    1b7c:	000003b0 	tge $zero,$zero
    1b80:	000003b5 	0x3b5
    1b84:	000003b8 	dsll $zero,$zero,0xe
    1b88:	000003b8 	dsll $zero,$zero,0xe
    1b8c:	000003c0 	sll $zero,$zero,0xf
    1b90:	000003c1 	0x3c1
    1b94:	000003cb 	0x3cb
    1b98:	000003d3 	0x3d3
    1b9c:	000003d3 	0x3d3
    1ba0:	000003d5 	0x3d5
    1ba4:	000003d9 	0x3d9
    1ba8:	000003d9 	0x3d9
    1bac:	000003dd 	0x3dd
    1bb0:	000003dd 	0x3dd
    1bb4:	000003e5 	0x3e5
    1bb8:	000003e5 	0x3e5
    1bbc:	000003e6 	0x3e6
Disassembly of section .reginfo:

00001bc0 <.reginfo>:
    1bc0:	a107fffc 	sb $a3,-4($t0)
    1bc4:	00000000 	nop
    1bc8:	00000000 	nop
    1bcc:	00000000 	nop
    1bd0:	00000000 	nop
    1bd4:	00009bb0 	tge $zero,$zero
