
build/qsort/a.out:     file format elf32-bigmips

Disassembly of section .text:

00001000 <__start>:
    1000:	27bdffe8 	addiu $sp,$sp,-24
    1004:	afbf0010 	sw $ra,16($sp)
    1008:	0c0004c0 	jal 1300 <main>
    100c:	4082a800 	mtc0 $v0,$21
    1010:	08000404 	j 1010 <__start+10>
    1014:	00000000 	nop
    1018:	00000000 	nop
    101c:	00000000 	nop

00001020 <printInt>:
    1020:	40849000 	mtc0 $a0,$18
    1024:	03e00008 	jr $ra
    1028:	00000000 	nop

0000102c <printChar>:
    102c:	40849800 	mtc0 $a0,$19
    1030:	03e00008 	jr $ra
    1034:	00000000 	nop

00001038 <printStr>:
    1038:	27bdffe0 	addiu $sp,$sp,-32
    103c:	afb00010 	sw $s0,16($sp)
    1040:	00808021 	move $s0,$a0
    1044:	afb20018 	sw $s2,24($sp)
    1048:	24120018 	li $s2,24
    104c:	afb10014 	sw $s1,20($sp)
    1050:	241100ff 	li $s1,255
    1054:	afbf001c 	sw $ra,28($sp)
    1058:	8e020000 	lw $v0,0($s0)
    105c:	32030003 	andi $v1,$s0,0x3
    1060:	000318c0 	sll $v1,$v1,0x3
    1064:	02431823 	subu $v1,$s2,$v1
    1068:	00712004 	sllv $a0,$s1,$v1
    106c:	00441024 	and $v0,$v0,$a0
    1070:	00622006 	srlv $a0,$v0,$v1
    1074:	10800003 	beqz $a0,1084 <printStr+4c>
    1078:	0c00040b 	jal 102c <printChar>
    107c:	26100001 	addiu $s0,$s0,1
    1080:	08000416 	j 1058 <printStr+20>
    1084:	8fbf001c 	lw $ra,28($sp)
    1088:	8fb20018 	lw $s2,24($sp)
    108c:	8fb10014 	lw $s1,20($sp)
    1090:	8fb00010 	lw $s0,16($sp)
    1094:	27bd0020 	addiu $sp,$sp,32
    1098:	03e00008 	jr $ra
    109c:	00000000 	nop

000010a0 <getTime>:
    10a0:	40025000 	mfc0 $v0,$10
    10a4:	03e00008 	jr $ra

000010a8 <getInsts>:
    10a8:	40025800 	mfc0 $v0,$11
    10ac:	03e00008 	jr $ra

000010b0 <verify>:
    10b0:	00003821 	move $a3,$zero
    10b4:	1880000a 	blez $a0,10e0 <verify+30>
    10b8:	8ca30000 	lw $v1,0($a1)
    10bc:	8cc20000 	lw $v0,0($a2)
    10c0:	10620002 	beq $v1,$v0,10cc <verify+1c>
    10c4:	00001021 	move $v0,$zero
    10c8:	03e00008 	jr $ra
    10cc:	24c60004 	addiu $a2,$a2,4
    10d0:	24a50004 	addiu $a1,$a1,4
    10d4:	24e70001 	addiu $a3,$a3,1
    10d8:	00e4102a 	slt $v0,$a3,$a0
    10dc:	1440fff6 	bnez $v0,10b8 <verify+8>
    10e0:	24020001 	li $v0,1
    10e4:	03e00008 	jr $ra

000010e8 <sort>:
    10e8:	27bdff00 	addiu $sp,$sp,-256
    10ec:	00806821 	move $t5,$a0
    10f0:	240c0001 	li $t4,1
    10f4:	0000c021 	move $t8,$zero
    10f8:	27affffc 	addiu $t7,$sp,-4
    10fc:	03a07021 	move $t6,$sp
    1100:	01ac1023 	subu $v0,$t5,$t4
    1104:	28420007 	slti $v0,$v0,7
    1108:	10400026 	beqz $v0,11a4 <sort+bc>
    110c:	25880001 	addiu $t0,$t4,1
    1110:	01a8102a 	slt $v0,$t5,$t0
    1114:	1440001b 	bnez $v0,1184 <sort+9c>
    1118:	00081080 	sll $v0,$t0,0x2
    111c:	2442fffc 	addiu $v0,$v0,-4
    1120:	00454821 	addu $t1,$v0,$a1
    1124:	8d2b0000 	lw $t3,0($t1)
    1128:	2507ffff 	addiu $a3,$t0,-1
    112c:	00ec102a 	slt $v0,$a3,$t4
    1130:	1440000d 	bnez $v0,1168 <sort+80>
    1134:	00071080 	sll $v0,$a3,0x2
    1138:	00453021 	addu $a2,$v0,$a1
    113c:	2442fffc 	addiu $v0,$v0,-4
    1140:	00452021 	addu $a0,$v0,$a1
    1144:	8c830000 	lw $v1,0($a0)
    1148:	0163102a 	slt $v0,$t3,$v1
    114c:	10400006 	beqz $v0,1168 <sort+80>
    1150:	acc30000 	sw $v1,0($a2)
    1154:	24c6fffc 	addiu $a2,$a2,-4
    1158:	2484fffc 	addiu $a0,$a0,-4
    115c:	24e7ffff 	addiu $a3,$a3,-1
    1160:	00ec102a 	slt $v0,$a3,$t4
    1164:	1040fff7 	beqz $v0,1144 <sort+5c>
    1168:	00071080 	sll $v0,$a3,0x2
    116c:	00451021 	addu $v0,$v0,$a1
    1170:	ac4b0000 	sw $t3,0($v0)
    1174:	25290004 	addiu $t1,$t1,4
    1178:	25080001 	addiu $t0,$t0,1
    117c:	01a8102a 	slt $v0,$t5,$t0
    1180:	1040ffe8 	beqz $v0,1124 <sort+3c>
    1184:	1300005c 	beqz $t8,12f8 <sort+210>
    1188:	8dcd0000 	lw $t5,0($t6)
    118c:	25cefffc 	addiu $t6,$t6,-4
    1190:	8dcc0000 	lw $t4,0($t6)
    1194:	25effff8 	addiu $t7,$t7,-8
    1198:	25cefffc 	addiu $t6,$t6,-4
    119c:	2718fffe 	addiu $t8,$t8,-2
    11a0:	08000440 	j 1100 <sort+18>
    11a4:	018d1021 	addu $v0,$t4,$t5
    11a8:	00021043 	sra $v0,$v0,0x1
    11ac:	00021080 	sll $v0,$v0,0x2
    11b0:	00451021 	addu $v0,$v0,$a1
    11b4:	000c1880 	sll $v1,$t4,0x2
    11b8:	00653021 	addu $a2,$v1,$a1
    11bc:	8cc30000 	lw $v1,0($a2)
    11c0:	8c44fffc 	lw $a0,-4($v0)
    11c4:	ac43fffc 	sw $v1,-4($v0)
    11c8:	8cc8fffc 	lw $t0,-4($a2)
    11cc:	000d1880 	sll $v1,$t5,0x2
    11d0:	00653821 	addu $a3,$v1,$a1
    11d4:	acc40000 	sw $a0,0($a2)
    11d8:	8ce4fffc 	lw $a0,-4($a3)
    11dc:	0088102a 	slt $v0,$a0,$t0
    11e0:	10400002 	beqz $v0,11ec <sort+104>
    11e4:	acc4fffc 	sw $a0,-4($a2)
    11e8:	ace8fffc 	sw $t0,-4($a3)
    11ec:	8cc80000 	lw $t0,0($a2)
    11f0:	8ce4fffc 	lw $a0,-4($a3)
    11f4:	0088102a 	slt $v0,$a0,$t0
    11f8:	10400002 	beqz $v0,1204 <sort+11c>
    11fc:	acc40000 	sw $a0,0($a2)
    1200:	ace8fffc 	sw $t0,-4($a3)
    1204:	8cc7fffc 	lw $a3,-4($a2)
    1208:	8cc40000 	lw $a0,0($a2)
    120c:	0087102a 	slt $v0,$a0,$a3
    1210:	10400002 	beqz $v0,121c <sort+134>
    1214:	acc4fffc 	sw $a0,-4($a2)
    1218:	acc70000 	sw $a3,0($a2)
    121c:	01a04021 	move $t0,$t5
    1220:	8ccb0000 	lw $t3,0($a2)
    1224:	2463fffc 	addiu $v1,$v1,-4
    1228:	00654821 	addu $t1,$v1,$a1
    122c:	25870001 	addiu $a3,$t4,1
    1230:	000c1080 	sll $v0,$t4,0x2
    1234:	00453021 	addu $a2,$v0,$a1
    1238:	00405021 	move $t2,$v0
    123c:	01452021 	addu $a0,$t2,$a1
    1240:	24840004 	addiu $a0,$a0,4
    1244:	24c60004 	addiu $a2,$a2,4
    1248:	8c820000 	lw $v0,0($a0)
    124c:	254a0004 	addiu $t2,$t2,4
    1250:	24e70001 	addiu $a3,$a3,1
    1254:	004b102a 	slt $v0,$v0,$t3
    1258:	1440fff9 	bnez $v0,1240 <sort+158>
    125c:	00652021 	addu $a0,$v1,$a1
    1260:	2484fffc 	addiu $a0,$a0,-4
    1264:	2529fffc 	addiu $t1,$t1,-4
    1268:	8c820000 	lw $v0,0($a0)
    126c:	2463fffc 	addiu $v1,$v1,-4
    1270:	2508ffff 	addiu $t0,$t0,-1
    1274:	0162102a 	slt $v0,$t3,$v0
    1278:	1440fff9 	bnez $v0,1260 <sort+178>
    127c:	0107102a 	slt $v0,$t0,$a3
    1280:	14400005 	bnez $v0,1298 <sort+1b0>
    1284:	8d220000 	lw $v0,0($t1)
    1288:	8cc40000 	lw $a0,0($a2)
    128c:	acc20000 	sw $v0,0($a2)
    1290:	ad240000 	sw $a0,0($t1)
    1294:	0800048f 	j 123c <sort+154>
    1298:	25ef0008 	addiu $t7,$t7,8
    129c:	25ce0008 	addiu $t6,$t6,8
    12a0:	27180002 	addiu $t8,$t8,2
    12a4:	00081880 	sll $v1,$t0,0x2
    12a8:	00651821 	addu $v1,$v1,$a1
    12ac:	8c64fffc 	lw $a0,-4($v1)
    12b0:	000c1080 	sll $v0,$t4,0x2
    12b4:	00451021 	addu $v0,$v0,$a1
    12b8:	ac440000 	sw $a0,0($v0)
    12bc:	01a71023 	subu $v0,$t5,$a3
    12c0:	24420001 	addiu $v0,$v0,1
    12c4:	ac6bfffc 	sw $t3,-4($v1)
    12c8:	010c1823 	subu $v1,$t0,$t4
    12cc:	0043102a 	slt $v0,$v0,$v1
    12d0:	14400004 	bnez $v0,12e4 <sort+1fc>
    12d4:	adcd0000 	sw $t5,0($t6)
    12d8:	250dffff 	addiu $t5,$t0,-1
    12dc:	ade70000 	sw $a3,0($t7)
    12e0:	08000440 	j 1100 <sort+18>
    12e4:	2502ffff 	addiu $v0,$t0,-1
    12e8:	adc20000 	sw $v0,0($t6)
    12ec:	adec0000 	sw $t4,0($t7)
    12f0:	00e06021 	move $t4,$a3
    12f4:	08000440 	j 1100 <sort+18>
    12f8:	27bd0100 	addiu $sp,$sp,256
    12fc:	03e00008 	jr $ra

00001300 <main>:
    1300:	27bdfbe0 	addiu $sp,$sp,-1056
    1304:	00002821 	move $a1,$zero
    1308:	27a40010 	addiu $a0,$sp,16
    130c:	3c030000 	lui $v1,0x0
    1310:	246313f0 	addiu $v1,$v1,5104
    1314:	afbf0418 	sw $ra,1048($sp)
    1318:	afb10414 	sw $s1,1044($sp)
    131c:	afb00410 	sw $s0,1040($sp)
    1320:	8c620000 	lw $v0,0($v1)
    1324:	24630004 	addiu $v1,$v1,4
    1328:	24a50001 	addiu $a1,$a1,1
    132c:	ac820000 	sw $v0,0($a0)
    1330:	24840004 	addiu $a0,$a0,4
    1334:	28a200fa 	slti $v0,$a1,250
    1338:	1440fff9 	bnez $v0,1320 <main+20>
    133c:	0c000428 	jal 10a0 <getTime>
    1340:	00408021 	move $s0,$v0
    1344:	0c00042a 	jal 10a8 <getInsts>
    1348:	00408821 	move $s1,$v0
    134c:	240400fa 	li $a0,250
    1350:	27a50010 	addiu $a1,$sp,16
    1354:	0c00043a 	jal 10e8 <sort>
    1358:	0c000428 	jal 10a0 <getTime>
    135c:	00508023 	subu $s0,$v0,$s0
    1360:	0c00042a 	jal 10a8 <getInsts>
    1364:	00518823 	subu $s1,$v0,$s1
    1368:	3c040000 	lui $a0,0x0
    136c:	248413d0 	addiu $a0,$a0,5072
    1370:	0c00040e 	jal 1038 <printStr>
    1374:	02002021 	move $a0,$s0
    1378:	0c000408 	jal 1020 <printInt>
    137c:	2404000a 	li $a0,10
    1380:	0c00040b 	jal 102c <printChar>
    1384:	3c040000 	lui $a0,0x0
    1388:	248413dc 	addiu $a0,$a0,5084
    138c:	0c00040e 	jal 1038 <printStr>
    1390:	02202021 	move $a0,$s1
    1394:	0c000408 	jal 1020 <printInt>
    1398:	2404000a 	li $a0,10
    139c:	0c00040b 	jal 102c <printChar>
    13a0:	240400fa 	li $a0,250
    13a4:	27a50010 	addiu $a1,$sp,16
    13a8:	3c060000 	lui $a2,0x0
    13ac:	24c617d8 	addiu $a2,$a2,6104
    13b0:	0c00042c 	jal 10b0 <verify>
    13b4:	8fbf0418 	lw $ra,1048($sp)
    13b8:	8fb10414 	lw $s1,1044($sp)
    13bc:	8fb00410 	lw $s0,1040($sp)
    13c0:	2c420001 	sltiu $v0,$v0,1
    13c4:	27bd0420 	addiu $sp,$sp,1056
    13c8:	03e00008 	jr $ra
    13cc:	00000000 	nop
Disassembly of section .aibpointers: