
build/vvadd/a.out:     file format elf32-bigmips

Disassembly of section .text:

00001000 <__start>:
    1000:	27bdffe8 	addiu $sp,$sp,-24
    1004:	afbf0010 	sw $ra,16($sp)
    1008:	0c000447 	jal 111c <main>
    100c:	4082a800 	mtc0 $v0,$21
    1010:	08000404 	j 1010 <__start+10>
    1014:	00000000 	nop
    1018:	00000000 	nop
    101c:	00000000 	nop

00001020 <printInt>:
    1020:	40849000 	mtc0 $a0,$18
    1024:	03e00008 	jr $ra
    1028:	00000000 	nop

0000102c <printChar>:
    102c:	40849800 	mtc0 $a0,$19
    1030:	03e00008 	jr $ra
    1034:	00000000 	nop

00001038 <printStr>:
    1038:	27bdffe0 	addiu $sp,$sp,-32
    103c:	afb00010 	sw $s0,16($sp)
    1040:	00808021 	move $s0,$a0
    1044:	afb20018 	sw $s2,24($sp)
    1048:	24120018 	li $s2,24
    104c:	afb10014 	sw $s1,20($sp)
    1050:	241100ff 	li $s1,255
    1054:	afbf001c 	sw $ra,28($sp)
    1058:	8e020000 	lw $v0,0($s0)
    105c:	32030003 	andi $v1,$s0,0x3
    1060:	000318c0 	sll $v1,$v1,0x3
    1064:	02431823 	subu $v1,$s2,$v1
    1068:	00712004 	sllv $a0,$s1,$v1
    106c:	00441024 	and $v0,$v0,$a0
    1070:	00622006 	srlv $a0,$v0,$v1
    1074:	10800003 	beqz $a0,1084 <printStr+4c>
    1078:	0c00040b 	jal 102c <printChar>
    107c:	26100001 	addiu $s0,$s0,1
    1080:	08000416 	j 1058 <printStr+20>
    1084:	8fbf001c 	lw $ra,28($sp)
    1088:	8fb20018 	lw $s2,24($sp)
    108c:	8fb10014 	lw $s1,20($sp)
    1090:	8fb00010 	lw $s0,16($sp)
    1094:	27bd0020 	addiu $sp,$sp,32
    1098:	03e00008 	jr $ra
    109c:	00000000 	nop

000010a0 <getTime>:
    10a0:	40025000 	mfc0 $v0,$10
    10a4:	03e00008 	jr $ra

000010a8 <getInsts>:
    10a8:	40025800 	mfc0 $v0,$11
    10ac:	03e00008 	jr $ra

000010b0 <verify>:
    10b0:	00003821 	move $a3,$zero
    10b4:	1880000a 	blez $a0,10e0 <verify+30>
    10b8:	8ca30000 	lw $v1,0($a1)
    10bc:	8cc20000 	lw $v0,0($a2)
    10c0:	10620002 	beq $v1,$v0,10cc <verify+1c>
    10c4:	00001021 	move $v0,$zero
    10c8:	03e00008 	jr $ra
    10cc:	24c60004 	addiu $a2,$a2,4
    10d0:	24a50004 	addiu $a1,$a1,4
    10d4:	24e70001 	addiu $a3,$a3,1
    10d8:	00e4102a 	slt $v0,$a3,$a0
    10dc:	1440fff6 	bnez $v0,10b8 <verify+8>
    10e0:	24020001 	li $v0,1
    10e4:	03e00008 	jr $ra

000010e8 <vvadd>:
    10e8:	00004021 	move $t0,$zero
    10ec:	1880000a 	blez $a0,1118 <vvadd+30>
    10f0:	8cc30000 	lw $v1,0($a2)
    10f4:	24c60004 	addiu $a2,$a2,4
    10f8:	8ca20000 	lw $v0,0($a1)
    10fc:	24a50004 	addiu $a1,$a1,4
    1100:	25080001 	addiu $t0,$t0,1
    1104:	00431021 	addu $v0,$v0,$v1
    1108:	ace20000 	sw $v0,0($a3)
    110c:	24e70004 	addiu $a3,$a3,4
    1110:	0104102a 	slt $v0,$t0,$a0
    1114:	1440fff6 	bnez $v0,10f0 <vvadd+8>
    1118:	03e00008 	jr $ra

0000111c <main>:
    111c:	27bdfb20 	addiu $sp,$sp,-1248
    1120:	afbf04d8 	sw $ra,1240($sp)
    1124:	afb104d4 	sw $s1,1236($sp)
    1128:	afb004d0 	sw $s0,1232($sp)
    112c:	0c000428 	jal 10a0 <getTime>
    1130:	00408021 	move $s0,$v0
    1134:	0c00042a 	jal 10a8 <getInsts>
    1138:	00408821 	move $s1,$v0
    113c:	2404012c 	li $a0,300
    1140:	3c050000 	lui $a1,0x0
    1144:	24a511f0 	addiu $a1,$a1,4592
    1148:	3c060000 	lui $a2,0x0
    114c:	24c616a0 	addiu $a2,$a2,5792
    1150:	27a70010 	addiu $a3,$sp,16
    1154:	0c00043a 	jal 10e8 <vvadd>
    1158:	0c000428 	jal 10a0 <getTime>
    115c:	00508023 	subu $s0,$v0,$s0
    1160:	0c00042a 	jal 10a8 <getInsts>
    1164:	00518823 	subu $s1,$v0,$s1
    1168:	3c040000 	lui $a0,0x0
    116c:	248411d0 	addiu $a0,$a0,4560
    1170:	0c00040e 	jal 1038 <printStr>
    1174:	02002021 	move $a0,$s0
    1178:	0c000408 	jal 1020 <printInt>
    117c:	2404000a 	li $a0,10
    1180:	0c00040b 	jal 102c <printChar>
    1184:	3c040000 	lui $a0,0x0
    1188:	248411dc 	addiu $a0,$a0,4572
    118c:	0c00040e 	jal 1038 <printStr>
    1190:	02202021 	move $a0,$s1
    1194:	0c000408 	jal 1020 <printInt>
    1198:	2404000a 	li $a0,10
    119c:	0c00040b 	jal 102c <printChar>
    11a0:	2404012c 	li $a0,300
    11a4:	27a50010 	addiu $a1,$sp,16
    11a8:	3c060000 	lui $a2,0x0
    11ac:	24c61b50 	addiu $a2,$a2,6992
    11b0:	0c00042c 	jal 10b0 <verify>
    11b4:	8fbf04d8 	lw $ra,1240($sp)
    11b8:	8fb104d4 	lw $s1,1236($sp)
    11bc:	8fb004d0 	lw $s0,1232($sp)
    11c0:	2c420001 	sltiu $v0,$v0,1
    11c4:	27bd04e0 	addiu $sp,$sp,1248
    11c8:	03e00008 	jr $ra
    11cc:	00000000 	nop
Disassembly of section .aibpointers: