
build/smipsv2_addu.S/a.out:     file format elf32-bigmips

Disassembly of section .text:

00001000 <__start>:
    1000:	27bdffe8 	addiu $sp,$sp,-24
    1004:	afbf0010 	sw $ra,16($sp)
    1008:	0c00042c 	jal 10b0 <main>
    100c:	4082a800 	mtc0 $v0,$21
    1010:	08000404 	j 1010 <__start+10>
    1014:	00000000 	nop
    1018:	00000000 	nop
    101c:	00000000 	nop

00001020 <printInt>:
    1020:	40849000 	mtc0 $a0,$18
    1024:	03e00008 	jr $ra
    1028:	00000000 	nop

0000102c <printChar>:
    102c:	40849800 	mtc0 $a0,$19
    1030:	03e00008 	jr $ra
    1034:	00000000 	nop

00001038 <printStr>:
    1038:	27bdffe0 	addiu $sp,$sp,-32
    103c:	afb00010 	sw $s0,16($sp)
    1040:	00808021 	move $s0,$a0
    1044:	afb20018 	sw $s2,24($sp)
    1048:	24120018 	li $s2,24
    104c:	afb10014 	sw $s1,20($sp)
    1050:	241100ff 	li $s1,255
    1054:	afbf001c 	sw $ra,28($sp)
    1058:	8e020000 	lw $v0,0($s0)
    105c:	32030003 	andi $v1,$s0,0x3
    1060:	000318c0 	sll $v1,$v1,0x3
    1064:	02431823 	subu $v1,$s2,$v1
    1068:	00712004 	sllv $a0,$s1,$v1
    106c:	00441024 	and $v0,$v0,$a0
    1070:	00622006 	srlv $a0,$v0,$v1
    1074:	10800003 	beqz $a0,1084 <printStr+4c>
    1078:	0c00040b 	jal 102c <printChar>
    107c:	26100001 	addiu $s0,$s0,1
    1080:	08000416 	j 1058 <printStr+20>
    1084:	8fbf001c 	lw $ra,28($sp)
    1088:	8fb20018 	lw $s2,24($sp)
    108c:	8fb10014 	lw $s1,20($sp)
    1090:	8fb00010 	lw $s0,16($sp)
    1094:	27bd0020 	addiu $sp,$sp,32
    1098:	03e00008 	jr $ra
    109c:	00000000 	nop

000010a0 <getTime>:
    10a0:	40025000 	mfc0 $v0,$10
    10a4:	03e00008 	jr $ra

000010a8 <getInsts>:
    10a8:	40025800 	mfc0 $v0,$11
    10ac:	03e00008 	jr $ra

000010b0 <main>:
    10b0:	24020000 	li $v0,0
    10b4:	24030000 	li $v1,0
    10b8:	00432021 	addu $a0,$v0,$v1
    10bc:	241d0000 	li $sp,0
    10c0:	241e0002 	li $s8,2
    10c4:	149d0114 	bne $a0,$sp,1518 <fail>

000010c8 <test_3>:
    10c8:	24020001 	li $v0,1
    10cc:	24030001 	li $v1,1
    10d0:	00432021 	addu $a0,$v0,$v1
    10d4:	241d0002 	li $sp,2
    10d8:	241e0003 	li $s8,3
    10dc:	149d010e 	bne $a0,$sp,1518 <fail>

000010e0 <test_4>:
    10e0:	24020003 	li $v0,3
    10e4:	24030007 	li $v1,7
    10e8:	00432021 	addu $a0,$v0,$v1
    10ec:	241d000a 	li $sp,10
    10f0:	241e0004 	li $s8,4
    10f4:	149d0108 	bne $a0,$sp,1518 <fail>

000010f8 <test_5>:
    10f8:	24020000 	li $v0,0
    10fc:	24038000 	li $v1,-32768
    1100:	00432021 	addu $a0,$v0,$v1
    1104:	241d8000 	li $sp,-32768
    1108:	241e0005 	li $s8,5
    110c:	149d0102 	bne $a0,$sp,1518 <fail>

00001110 <test_6>:
    1110:	3c028000 	lui $v0,0x8000
    1114:	24030000 	li $v1,0
    1118:	00432021 	addu $a0,$v0,$v1
    111c:	3c1d8000 	lui $sp,0x8000
    1120:	241e0006 	li $s8,6
    1124:	149d00fc 	bne $a0,$sp,1518 <fail>

00001128 <test_7>:
    1128:	3c028000 	lui $v0,0x8000
    112c:	24038000 	li $v1,-32768
    1130:	00432021 	addu $a0,$v0,$v1
    1134:	3c1d7fff 	lui $sp,0x7fff
    1138:	37bd8000 	ori $sp,$sp,0x8000
    113c:	241e0007 	li $s8,7
    1140:	149d00f5 	bne $a0,$sp,1518 <fail>

00001144 <test_8>:
    1144:	24020000 	li $v0,0
    1148:	24037fff 	li $v1,32767
    114c:	00432021 	addu $a0,$v0,$v1
    1150:	241d7fff 	li $sp,32767
    1154:	241e0008 	li $s8,8
    1158:	149d00ef 	bne $a0,$sp,1518 <fail>

0000115c <test_9>:
    115c:	3c027fff 	lui $v0,0x7fff
    1160:	3442ffff 	ori $v0,$v0,0xffff
    1164:	24030000 	li $v1,0
    1168:	00432021 	addu $a0,$v0,$v1
    116c:	3c1d7fff 	lui $sp,0x7fff
    1170:	37bdffff 	ori $sp,$sp,0xffff
    1174:	241e0009 	li $s8,9
    1178:	149d00e7 	bne $a0,$sp,1518 <fail>

0000117c <test_10>:
    117c:	3c027fff 	lui $v0,0x7fff
    1180:	3442ffff 	ori $v0,$v0,0xffff
    1184:	24037fff 	li $v1,32767
    1188:	00432021 	addu $a0,$v0,$v1
    118c:	3c1d8000 	lui $sp,0x8000
    1190:	37bd7ffe 	ori $sp,$sp,0x7ffe
    1194:	241e000a 	li $s8,10
    1198:	149d00df 	bne $a0,$sp,1518 <fail>

0000119c <test_11>:
    119c:	3c028000 	lui $v0,0x8000
    11a0:	24037fff 	li $v1,32767
    11a4:	00432021 	addu $a0,$v0,$v1
    11a8:	3c1d8000 	lui $sp,0x8000
    11ac:	37bd7fff 	ori $sp,$sp,0x7fff
    11b0:	241e000b 	li $s8,11
    11b4:	149d00d8 	bne $a0,$sp,1518 <fail>

000011b8 <test_12>:
    11b8:	3c027fff 	lui $v0,0x7fff
    11bc:	3442ffff 	ori $v0,$v0,0xffff
    11c0:	24038000 	li $v1,-32768
    11c4:	00432021 	addu $a0,$v0,$v1
    11c8:	3c1d7fff 	lui $sp,0x7fff
    11cc:	37bd7fff 	ori $sp,$sp,0x7fff
    11d0:	241e000c 	li $s8,12
    11d4:	149d00d0 	bne $a0,$sp,1518 <fail>

000011d8 <test_13>:
    11d8:	24020000 	li $v0,0
    11dc:	2403ffff 	li $v1,-1
    11e0:	00432021 	addu $a0,$v0,$v1
    11e4:	241dffff 	li $sp,-1
    11e8:	241e000d 	li $s8,13
    11ec:	149d00ca 	bne $a0,$sp,1518 <fail>

000011f0 <test_14>:
    11f0:	2402ffff 	li $v0,-1
    11f4:	24030001 	li $v1,1
    11f8:	00432021 	addu $a0,$v0,$v1
    11fc:	241d0000 	li $sp,0
    1200:	241e000e 	li $s8,14
    1204:	149d00c4 	bne $a0,$sp,1518 <fail>

00001208 <test_15>:
    1208:	2402ffff 	li $v0,-1
    120c:	2403ffff 	li $v1,-1
    1210:	00432021 	addu $a0,$v0,$v1
    1214:	241dfffe 	li $sp,-2
    1218:	241e000f 	li $s8,15
    121c:	149d00be 	bne $a0,$sp,1518 <fail>

00001220 <test_16>:
    1220:	2402000d 	li $v0,13
    1224:	2403000b 	li $v1,11
    1228:	00431021 	addu $v0,$v0,$v1
    122c:	241d0018 	li $sp,24
    1230:	241e0010 	li $s8,16
    1234:	145d00b8 	bne $v0,$sp,1518 <fail>

00001238 <test_17>:
    1238:	2402000e 	li $v0,14
    123c:	2403000b 	li $v1,11
    1240:	00431821 	addu $v1,$v0,$v1
    1244:	241d0019 	li $sp,25
    1248:	241e0011 	li $s8,17
    124c:	147d00b2 	bne $v1,$sp,1518 <fail>

00001250 <test_18>:
    1250:	2402000d 	li $v0,13
    1254:	00421021 	addu $v0,$v0,$v0
    1258:	241d001a 	li $sp,26
    125c:	241e0012 	li $s8,18
    1260:	145d00ad 	bne $v0,$sp,1518 <fail>

00001264 <test_19>:
    1264:	24050000 	li $a1,0
    1268:	2402000d 	li $v0,13
    126c:	2403000b 	li $v1,11
    1270:	00432021 	addu $a0,$v0,$v1
    1274:	24870000 	addiu $a3,$a0,0
    1278:	24a50001 	addiu $a1,$a1,1
    127c:	24060002 	li $a2,2
    1280:	14a6fff9 	bne $a1,$a2,1268 <test_19+4>
    1284:	241d0018 	li $sp,24
    1288:	241e0013 	li $s8,19
    128c:	14fd00a2 	bne $a3,$sp,1518 <fail>

00001290 <test_20>:
    1290:	24050000 	li $a1,0
    1294:	2402000e 	li $v0,14
    1298:	2403000b 	li $v1,11
    129c:	00432021 	addu $a0,$v0,$v1
    12a0:	00000000 	nop
    12a4:	24870000 	addiu $a3,$a0,0
    12a8:	24a50001 	addiu $a1,$a1,1
    12ac:	24060002 	li $a2,2
    12b0:	14a6fff8 	bne $a1,$a2,1294 <test_20+4>
    12b4:	241d0019 	li $sp,25
    12b8:	241e0014 	li $s8,20
    12bc:	14fd0096 	bne $a3,$sp,1518 <fail>

000012c0 <test_21>:
    12c0:	24050000 	li $a1,0
    12c4:	2402000f 	li $v0,15
    12c8:	2403000b 	li $v1,11
    12cc:	00432021 	addu $a0,$v0,$v1
    12d0:	00000000 	nop
    12d4:	00000000 	nop
    12d8:	24870000 	addiu $a3,$a0,0
    12dc:	24a50001 	addiu $a1,$a1,1
    12e0:	24060002 	li $a2,2
    12e4:	14a6fff7 	bne $a1,$a2,12c4 <test_21+4>
    12e8:	241d001a 	li $sp,26
    12ec:	241e0015 	li $s8,21
    12f0:	14fd0089 	bne $a3,$sp,1518 <fail>

000012f4 <test_22>:
    12f4:	24050000 	li $a1,0
    12f8:	2402000d 	li $v0,13
    12fc:	2403000b 	li $v1,11
    1300:	00432021 	addu $a0,$v0,$v1
    1304:	24a50001 	addiu $a1,$a1,1
    1308:	24060002 	li $a2,2
    130c:	14a6fffa 	bne $a1,$a2,12f8 <test_22+4>
    1310:	241d0018 	li $sp,24
    1314:	241e0016 	li $s8,22
    1318:	149d007f 	bne $a0,$sp,1518 <fail>

0000131c <test_23>:
    131c:	24050000 	li $a1,0
    1320:	2402000e 	li $v0,14
    1324:	2403000b 	li $v1,11
    1328:	00000000 	nop
    132c:	00432021 	addu $a0,$v0,$v1
    1330:	24a50001 	addiu $a1,$a1,1
    1334:	24060002 	li $a2,2
    1338:	14a6fff9 	bne $a1,$a2,1320 <test_23+4>
    133c:	241d0019 	li $sp,25
    1340:	241e0017 	li $s8,23
    1344:	149d0074 	bne $a0,$sp,1518 <fail>

00001348 <test_24>:
    1348:	24050000 	li $a1,0
    134c:	2402000f 	li $v0,15
    1350:	2403000b 	li $v1,11
    1354:	00000000 	nop
    1358:	00000000 	nop
    135c:	00432021 	addu $a0,$v0,$v1
    1360:	24a50001 	addiu $a1,$a1,1
    1364:	24060002 	li $a2,2
    1368:	14a6fff8 	bne $a1,$a2,134c <test_24+4>
    136c:	241d001a 	li $sp,26
    1370:	241e0018 	li $s8,24
    1374:	149d0068 	bne $a0,$sp,1518 <fail>

00001378 <test_25>:
    1378:	24050000 	li $a1,0
    137c:	2402000d 	li $v0,13
    1380:	00000000 	nop
    1384:	2403000b 	li $v1,11
    1388:	00432021 	addu $a0,$v0,$v1
    138c:	24a50001 	addiu $a1,$a1,1
    1390:	24060002 	li $a2,2
    1394:	14a6fff9 	bne $a1,$a2,137c <test_25+4>
    1398:	241d0018 	li $sp,24
    139c:	241e0019 	li $s8,25
    13a0:	149d005d 	bne $a0,$sp,1518 <fail>

000013a4 <test_26>:
    13a4:	24050000 	li $a1,0
    13a8:	2402000e 	li $v0,14
    13ac:	00000000 	nop
    13b0:	2403000b 	li $v1,11
    13b4:	00000000 	nop
    13b8:	00432021 	addu $a0,$v0,$v1
    13bc:	24a50001 	addiu $a1,$a1,1
    13c0:	24060002 	li $a2,2
    13c4:	14a6fff8 	bne $a1,$a2,13a8 <test_26+4>
    13c8:	241d0019 	li $sp,25
    13cc:	241e001a 	li $s8,26
    13d0:	149d0051 	bne $a0,$sp,1518 <fail>

000013d4 <test_27>:
    13d4:	24050000 	li $a1,0
    13d8:	2402000f 	li $v0,15
    13dc:	00000000 	nop
    13e0:	00000000 	nop
    13e4:	2403000b 	li $v1,11
    13e8:	00432021 	addu $a0,$v0,$v1
    13ec:	24a50001 	addiu $a1,$a1,1
    13f0:	24060002 	li $a2,2
    13f4:	14a6fff8 	bne $a1,$a2,13d8 <test_27+4>
    13f8:	241d001a 	li $sp,26
    13fc:	241e001b 	li $s8,27
    1400:	149d0045 	bne $a0,$sp,1518 <fail>

00001404 <test_28>:
    1404:	24050000 	li $a1,0
    1408:	2403000b 	li $v1,11
    140c:	2402000d 	li $v0,13
    1410:	00432021 	addu $a0,$v0,$v1
    1414:	24a50001 	addiu $a1,$a1,1
    1418:	24060002 	li $a2,2
    141c:	14a6fffa 	bne $a1,$a2,1408 <test_28+4>
    1420:	241d0018 	li $sp,24
    1424:	241e001c 	li $s8,28
    1428:	149d003b 	bne $a0,$sp,1518 <fail>

0000142c <test_29>:
    142c:	24050000 	li $a1,0
    1430:	2403000b 	li $v1,11
    1434:	2402000e 	li $v0,14
    1438:	00000000 	nop
    143c:	00432021 	addu $a0,$v0,$v1
    1440:	24a50001 	addiu $a1,$a1,1
    1444:	24060002 	li $a2,2
    1448:	14a6fff9 	bne $a1,$a2,1430 <test_29+4>
    144c:	241d0019 	li $sp,25
    1450:	241e001d 	li $s8,29
    1454:	149d0030 	bne $a0,$sp,1518 <fail>

00001458 <test_30>:
    1458:	24050000 	li $a1,0
    145c:	2403000b 	li $v1,11
    1460:	2402000f 	li $v0,15
    1464:	00000000 	nop
    1468:	00000000 	nop
    146c:	00432021 	addu $a0,$v0,$v1
    1470:	24a50001 	addiu $a1,$a1,1
    1474:	24060002 	li $a2,2
    1478:	14a6fff8 	bne $a1,$a2,145c <test_30+4>
    147c:	241d001a 	li $sp,26
    1480:	241e001e 	li $s8,30
    1484:	149d0024 	bne $a0,$sp,1518 <fail>

00001488 <test_31>:
    1488:	24050000 	li $a1,0
    148c:	2403000b 	li $v1,11
    1490:	00000000 	nop
    1494:	2402000d 	li $v0,13
    1498:	00432021 	addu $a0,$v0,$v1
    149c:	24a50001 	addiu $a1,$a1,1
    14a0:	24060002 	li $a2,2
    14a4:	14a6fff9 	bne $a1,$a2,148c <test_31+4>
    14a8:	241d0018 	li $sp,24
    14ac:	241e001f 	li $s8,31
    14b0:	149d0019 	bne $a0,$sp,1518 <fail>

000014b4 <test_32>:
    14b4:	24050000 	li $a1,0
    14b8:	2403000b 	li $v1,11
    14bc:	00000000 	nop
    14c0:	2402000e 	li $v0,14
    14c4:	00000000 	nop
    14c8:	00432021 	addu $a0,$v0,$v1
    14cc:	24a50001 	addiu $a1,$a1,1
    14d0:	24060002 	li $a2,2
    14d4:	14a6fff8 	bne $a1,$a2,14b8 <test_32+4>
    14d8:	241d0019 	li $sp,25
    14dc:	241e0020 	li $s8,32
    14e0:	149d000d 	bne $a0,$sp,1518 <fail>

000014e4 <test_33>:
    14e4:	24050000 	li $a1,0
    14e8:	2403000b 	li $v1,11
    14ec:	00000000 	nop
    14f0:	00000000 	nop
    14f4:	2402000f 	li $v0,15
    14f8:	00432021 	addu $a0,$v0,$v1
    14fc:	24a50001 	addiu $a1,$a1,1
    1500:	24060002 	li $a2,2
    1504:	14a6fff8 	bne $a1,$a2,14e8 <test_33+4>
    1508:	241d001a 	li $sp,26
    150c:	241e0021 	li $s8,33
    1510:	149d0001 	bne $a0,$sp,1518 <fail>
    1514:	141e0003 	bne $zero,$s8,1524 <pass>

00001518 <fail>:
    1518:	409ea800 	mtc0 $s8,$21
    151c:	1000ffff 	b 151c <fail+4>
    1520:	00000000 	nop

00001524 <pass>:
    1524:	4080a800 	mtc0 $zero,$21
    1528:	1000ffff 	b 1528 <pass+4>
    152c:	00000000 	nop
Disassembly of section .aibpointers: