
build/multiply/a.out:     file format elf32-bigmips

Disassembly of section .text:

00001000 <__start>:
    1000:	27bdffe8 	addiu $sp,$sp,-24
    1004:	afbf0010 	sw $ra,16($sp)
    1008:	0c000446 	jal 1118 <main>
    100c:	4082a800 	mtc0 $v0,$21
    1010:	08000404 	j 1010 <__start+10>
    1014:	00000000 	nop
    1018:	00000000 	nop
    101c:	00000000 	nop

00001020 <printInt>:
    1020:	40849000 	mtc0 $a0,$18
    1024:	03e00008 	jr $ra
    1028:	00000000 	nop

0000102c <printChar>:
    102c:	40849800 	mtc0 $a0,$19
    1030:	03e00008 	jr $ra
    1034:	00000000 	nop

00001038 <printStr>:
    1038:	27bdffe0 	addiu $sp,$sp,-32
    103c:	afb00010 	sw $s0,16($sp)
    1040:	00808021 	move $s0,$a0
    1044:	afb20018 	sw $s2,24($sp)
    1048:	24120018 	li $s2,24
    104c:	afb10014 	sw $s1,20($sp)
    1050:	241100ff 	li $s1,255
    1054:	afbf001c 	sw $ra,28($sp)
    1058:	8e020000 	lw $v0,0($s0)
    105c:	32030003 	andi $v1,$s0,0x3
    1060:	000318c0 	sll $v1,$v1,0x3
    1064:	02431823 	subu $v1,$s2,$v1
    1068:	00712004 	sllv $a0,$s1,$v1
    106c:	00441024 	and $v0,$v0,$a0
    1070:	00622006 	srlv $a0,$v0,$v1
    1074:	10800003 	beqz $a0,1084 <printStr+4c>
    1078:	0c00040b 	jal 102c <printChar>
    107c:	26100001 	addiu $s0,$s0,1
    1080:	08000416 	j 1058 <printStr+20>
    1084:	8fbf001c 	lw $ra,28($sp)
    1088:	8fb20018 	lw $s2,24($sp)
    108c:	8fb10014 	lw $s1,20($sp)
    1090:	8fb00010 	lw $s0,16($sp)
    1094:	27bd0020 	addiu $sp,$sp,32
    1098:	03e00008 	jr $ra
    109c:	00000000 	nop

000010a0 <getTime>:
    10a0:	40025000 	mfc0 $v0,$10
    10a4:	03e00008 	jr $ra

000010a8 <getInsts>:
    10a8:	40025800 	mfc0 $v0,$11
    10ac:	03e00008 	jr $ra

000010b0 <multiply>:
    10b0:	00003021 	move $a2,$zero
    10b4:	2403001f 	li $v1,31
    10b8:	30820001 	andi $v0,$a0,0x1
    10bc:	10400001 	beqz $v0,10c4 <multiply+14>
    10c0:	00c53021 	addu $a2,$a2,$a1
    10c4:	00042043 	sra $a0,$a0,0x1
    10c8:	00052840 	sll $a1,$a1,0x1
    10cc:	2463ffff 	addiu $v1,$v1,-1
    10d0:	0461fff9 	bgez $v1,10b8 <multiply+8>
    10d4:	00c01021 	move $v0,$a2
    10d8:	03e00008 	jr $ra
    10dc:	00000000 	nop

000010e0 <verify>:
    10e0:	00003821 	move $a3,$zero
    10e4:	1880000a 	blez $a0,1110 <verify+30>
    10e8:	8ca30000 	lw $v1,0($a1)
    10ec:	8cc20000 	lw $v0,0($a2)
    10f0:	10620002 	beq $v1,$v0,10fc <verify+1c>
    10f4:	00001021 	move $v0,$zero
    10f8:	03e00008 	jr $ra
    10fc:	24c60004 	addiu $a2,$a2,4
    1100:	24a50004 	addiu $a1,$a1,4
    1104:	24e70001 	addiu $a3,$a3,1
    1108:	00e4102a 	slt $v0,$a3,$a0
    110c:	1440fff6 	bnez $v0,10e8 <verify+8>
    1110:	24020001 	li $v0,1
    1114:	03e00008 	jr $ra

00001118 <main>:
    1118:	27bdfe10 	addiu $sp,$sp,-496
    111c:	afbf01e8 	sw $ra,488($sp)
    1120:	afb501e4 	sw $s5,484($sp)
    1124:	afb401e0 	sw $s4,480($sp)
    1128:	afb301dc 	sw $s3,476($sp)
    112c:	afb201d8 	sw $s2,472($sp)
    1130:	afb101d4 	sw $s1,468($sp)
    1134:	afb001d0 	sw $s0,464($sp)
    1138:	0c000428 	jal 10a0 <getTime>
    113c:	0040a021 	move $s4,$v0
    1140:	0c00042a 	jal 10a8 <getInsts>
    1144:	0040a821 	move $s5,$v0
    1148:	00009821 	move $s3,$zero
    114c:	27b20010 	addiu $s2,$sp,16
    1150:	3c110000 	lui $s1,0x0
    1154:	263113c0 	addiu $s1,$s1,5056
    1158:	3c100000 	lui $s0,0x0
    115c:	26101230 	addiu $s0,$s0,4656
    1160:	8e040000 	lw $a0,0($s0)
    1164:	8e250000 	lw $a1,0($s1)
    1168:	26310004 	addiu $s1,$s1,4
    116c:	26100004 	addiu $s0,$s0,4
    1170:	26730001 	addiu $s3,$s3,1
    1174:	0c00042c 	jal 10b0 <multiply>
    1178:	ae420000 	sw $v0,0($s2)
    117c:	26520004 	addiu $s2,$s2,4
    1180:	2a620064 	slti $v0,$s3,100
    1184:	1440fff6 	bnez $v0,1160 <main+48>
    1188:	0c000428 	jal 10a0 <getTime>
    118c:	0054a023 	subu $s4,$v0,$s4
    1190:	0c00042a 	jal 10a8 <getInsts>
    1194:	0055a823 	subu $s5,$v0,$s5
    1198:	3c040000 	lui $a0,0x0
    119c:	24841210 	addiu $a0,$a0,4624
    11a0:	0c00040e 	jal 1038 <printStr>
    11a4:	02802021 	move $a0,$s4
    11a8:	0c000408 	jal 1020 <printInt>
    11ac:	2404000a 	li $a0,10
    11b0:	0c00040b 	jal 102c <printChar>
    11b4:	3c040000 	lui $a0,0x0
    11b8:	2484121c 	addiu $a0,$a0,4636
    11bc:	0c00040e 	jal 1038 <printStr>
    11c0:	02a02021 	move $a0,$s5
    11c4:	0c000408 	jal 1020 <printInt>
    11c8:	2404000a 	li $a0,10
    11cc:	0c00040b 	jal 102c <printChar>
    11d0:	24040064 	li $a0,100
    11d4:	27a50010 	addiu $a1,$sp,16
    11d8:	3c060000 	lui $a2,0x0
    11dc:	24c61550 	addiu $a2,$a2,5456
    11e0:	0c000438 	jal 10e0 <verify>
    11e4:	8fbf01e8 	lw $ra,488($sp)
    11e8:	8fb501e4 	lw $s5,484($sp)
    11ec:	8fb401e0 	lw $s4,480($sp)
    11f0:	8fb301dc 	lw $s3,476($sp)
    11f4:	8fb201d8 	lw $s2,472($sp)
    11f8:	8fb101d4 	lw $s1,468($sp)
    11fc:	8fb001d0 	lw $s0,464($sp)
    1200:	2c420001 	sltiu $v0,$v0,1
    1204:	27bd01f0 	addiu $sp,$sp,496
    1208:	03e00008 	jr $ra
    120c:	00000000 	nop
Disassembly of section .rodata:

00001210 <_frdata>:
    1210:	4379636c 	c0 0x179636c
    1214:	6573203d 	daddiu $s3,$t3,8253
    1218:	20000000 	addi $zero,$zero,0
    121c:	496e7374 	0x496e7374
    1220:	7320203d 	addciu $zero,$t9,8253
    1224:	20000000 	addi $zero,$zero,0
    1228:	00000000 	nop
    122c:	00000000 	nop
Disassembly of section .aibpointers:
Disassembly of section .data:

00001230 <_fdata>:
    1230:	00000029 	dmadd16 $zero,$zero
    1234:	000001c6 	0x1c6
    1238:	00000341 	0x341
    123c:	0000014f 	0x14f
    1240:	00000234 	teq $zero,$zero
    1244:	00000001 	movf $zero,$zero,$fcc0
    1248:	000000bb 	dsra $zero,$zero,0x2
    124c:	000003dd 	0x3dd
    1250:	000002ed 	0x2ed
    1254:	0000016d 	0x16d
    1258:	0000015e 	0x15e
    125c:	0000023c 	dsll32 $zero,$zero,0x8
    1260:	00000084 	0x84
    1264:	00000040 	sll $zero,$zero,0x1
    1268:	000003b5 	0x3b5
    126c:	00000099 	0x99
    1270:	00000248 	0x248
    1274:	000000d8 	0xd8
    1278:	00000325 	0x325
    127c:	0000008c 	syscall 0x2
    1280:	0000026d 	0x26d
    1284:	000000d2 	0xd2
    1288:	00000006 	srlv $zero,$zero,$zero
    128c:	0000023c 	dsll32 $zero,$zero,0x8
    1290:	000003a3 	0x3a3
    1294:	00000153 	0x153
    1298:	0000037a 	dsrl $zero,$zero,0xd
    129c:	00000251 	0x251
    12a0:	00000188 	0x188
    12a4:	00000382 	srl $zero,$zero,0xe
    12a8:	000002b6 	tne $zero,$zero
    12ac:	000000e4 	0xe4
    12b0:	000003c1 	0x3c1
    12b4:	0000000c 	syscall
    12b8:	0000006e 	0x6e
    12bc:	00000373 	tltu $zero,$zero
    12c0:	00000074 	teq $zero,$zero
    12c4:	000002ee 	0x2ee
    12c8:	00000128 	0x128
    12cc:	00000286 	0x286
    12d0:	000001aa 	0x1aa
    12d4:	000001f4 	teq $zero,$zero
    12d8:	0000013a 	dsrl $zero,$zero,0x4
    12dc:	000001b4 	teq $zero,$zero
    12e0:	00000293 	0x293
    12e4:	000002bd 	0x2bd
    12e8:	00000306 	0x306
    12ec:	0000032c 	0x32c
    12f0:	0000013f 	dsra32 $zero,$zero,0x4
    12f4:	000003d5 	0x3d5
    12f8:	000002a6 	0x2a6
    12fc:	00000096 	0x96
    1300:	0000036b 	0x36b
    1304:	000002b8 	dsll $zero,$zero,0xa
    1308:	00000178 	dsll $zero,$zero,0x5
    130c:	00000234 	teq $zero,$zero
    1310:	000001da 	0x1da
    1314:	00000110 	0x110
    1318:	000003aa 	0x3aa
    131c:	00000102 	srl $zero,$zero,0x4
    1320:	0000021b 	0x21b
    1324:	00000287 	0x287
    1328:	00000239 	0x239
    132c:	000001fd 	0x1fd
    1330:	000000cb 	0xcb
    1334:	00000058 	0x58
    1338:	00000118 	0x118
    133c:	000002bf 	dsra32 $zero,$zero,0xa
    1340:	000002f7 	0x2f7
    1344:	0000029d 	0x29d
    1348:	0000025e 	0x25e
    134c:	00000177 	0x177
    1350:	000001ff 	dsra32 $zero,$zero,0x7
    1354:	00000227 	0x227
    1358:	00000291 	0x291
    135c:	000003a8 	0x3a8
    1360:	000000c3 	sra $zero,$zero,0x3
    1364:	00000250 	0x250
    1368:	00000051 	0x51
    136c:	00000239 	0x239
    1370:	0000010b 	0x10b
    1374:	000003b8 	dsll $zero,$zero,0xe
    1378:	000000e5 	0xe5
    137c:	00000320 	0x320
    1380:	00000151 	0x151
    1384:	00000248 	0x248
    1388:	000003b0 	tge $zero,$zero
    138c:	00000283 	sra $zero,$zero,0xa
    1390:	00000386 	0x386
    1394:	00000170 	tge $zero,$zero
    1398:	000000f1 	tgeu $zero,$zero
    139c:	000001e9 	0x1e9
    13a0:	00000391 	0x391
    13a4:	00000148 	0x148
    13a8:	0000033a 	dsrl $zero,$zero,0xc
    13ac:	00000139 	0x139
    13b0:	000003a5 	0x3a5
    13b4:	00000250 	0x250
    13b8:	000003d9 	0x3d9
    13bc:	00000184 	0x184

000013c0 <input_data2>:
    13c0:	000000c3 	sra $zero,$zero,0x3
    13c4:	0000021f 	0x21f
    13c8:	000003c0 	sll $zero,$zero,0xf
    13cc:	00000289 	0x289
    13d0:	00000236 	tne $zero,$zero
    13d4:	000003d3 	0x3d3
    13d8:	0000015e 	0x15e
    13dc:	000003e5 	0x3e5
    13e0:	00000289 	0x289
    13e4:	0000032e 	0x32e
    13e8:	00000291 	0x291
    13ec:	0000004f 	0x4f
    13f0:	000000b5 	0xb5
    13f4:	000000d0 	0xd0
    13f8:	0000006f 	0x6f
    13fc:	000003e6 	0x3e6
    1400:	0000035b 	0x35b
    1404:	00000275 	0x275
    1408:	00000041 	0x41
    140c:	0000034f 	0x34f
    1410:	00000120 	0x120
    1414:	000002c0 	sll $zero,$zero,0xb
    1418:	0000015d 	0x15d
    141c:	000003e5 	0x3e5
    1420:	0000008d 	break 0x0
    1424:	000000fd 	0xfd
    1428:	00000389 	0x389
    142c:	000002cb 	0x2cb
    1430:	00000376 	tne $zero,$zero
    1434:	000001ae 	0x1ae
    1438:	00000108 	0x108
    143c:	0000019f 	0x19f
    1440:	00000240 	sll $zero,$zero,0x9
    1444:	0000021a 	0x21a
    1448:	000003d3 	0x3d3
    144c:	000002bc 	dsll32 $zero,$zero,0xa
    1450:	000002f9 	0x2f9
    1454:	00000004 	sllv $zero,$zero,$zero
    1458:	000000f1 	tgeu $zero,$zero
    145c:	000001ee 	0x1ee
    1460:	000001de 	0x1de
    1464:	00000064 	0x64
    1468:	000001f3 	tltu $zero,$zero
    146c:	00000360 	0x360
    1470:	00000193 	0x193
    1474:	000002b5 	0x2b5
    1478:	000000de 	0xde
    147c:	000001a0 	0x1a0
    1480:	000001bc 	dsll32 $zero,$zero,0x6
    1484:	00000128 	0x128
    1488:	000002d1 	0x2d1
    148c:	0000011d 	0x11d
    1490:	000002a4 	0x2a4
    1494:	0000026c 	0x26c
    1498:	0000013d 	0x13d
    149c:	0000004e 	0x4e
    14a0:	000000e0 	0xe0
    14a4:	0000015f 	0x15f
    14a8:	000003a9 	0x3a9
    14ac:	0000021c 	0x21c
    14b0:	00000120 	0x120
    14b4:	00000286 	0x286
    14b8:	00000077 	0x77
    14bc:	000000a9 	0xa9
    14c0:	00000267 	0x267
    14c4:	0000020f 	0x20f
    14c8:	0000025e 	0x25e
    14cc:	00000121 	0x121
    14d0:	00000185 	0x185
    14d4:	0000031c 	0x31c
    14d8:	0000015f 	0x15f
    14dc:	00000321 	0x321
    14e0:	000001c7 	0x1c7
    14e4:	000002d0 	0x2d0
    14e8:	00000116 	0x116
    14ec:	000002f6 	tne $zero,$zero
    14f0:	0000016f 	0x16f
    14f4:	000002e9 	0x2e9
    14f8:	00000166 	0x166
    14fc:	0000005c 	0x5c
    1500:	00000248 	0x248
    1504:	000003dd 	0x3dd
    1508:	0000003e 	dsrl32 $zero,$zero,0x0
    150c:	0000010f 	0x10f
    1510:	000003d9 	0x3d9
    1514:	00000355 	0x355
    1518:	00000193 	0x193
    151c:	00000314 	0x314
    1520:	0000015a 	0x15a
    1524:	00000213 	0x213
    1528:	00000205 	0x205
    152c:	000000de 	0xde
    1530:	0000022f 	0x22f
    1534:	000001cd 	break 0x0
    1538:	0000038c 	syscall 0xe
    153c:	000000f1 	tgeu $zero,$zero
    1540:	00000307 	0x307
    1544:	00000166 	0x166
    1548:	000000ff 	dsra32 $zero,$zero,0x3
    154c:	0000014c 	syscall 0x5

00001550 <verify_data>:
    1550:	00001f3b 	dsra $v1,$zero,0x1c
    1554:	0003c2fa 	dsrl $t8,$v1,0xb
    1558:	000c33c0 	sll $a2,$t4,0xf
    155c:	00035147 	0x35147
    1560:	0004def8 	dsll $k1,$a0,0x1b
    1564:	000003d3 	0x3d3
    1568:	0000ffaa 	0xffaa
    156c:	000f0bb1 	tgeu $zero,$t7
    1570:	00076ad5 	0x76ad5
    1574:	00048896 	0x48896
    1578:	0003823e 	dsrl32 $s0,$v1,0x8
    157c:	0000b084 	0xb084
    1580:	00005d54 	0x5d54
    1584:	00003400 	sll $a2,$zero,0x10
    1588:	00019b7b 	dsra $s3,$at,0xd
    158c:	00025476 	tne $zero,$v0
    1590:	0007a798 	0x7a798
    1594:	000212b8 	dsll $v0,$v0,0xa
    1598:	0000cc65 	0xcc65
    159c:	0001cf34 	teq $zero,$at
    15a0:	0002baa0 	0x2baa0
    15a4:	00024180 	sll $t0,$v0,0x6
    15a8:	0000082e 	dneg $at,$zero
    15ac:	0008b3ac 	0x8b3ac
    15b0:	000200c7 	0x200c7
    15b4:	00014f07 	0x14f07
    15b8:	000c4a4a 	0xc4a4a
    15bc:	0006783b 	dsra $t7,$a2,0x0
    15c0:	00054cb0 	tge $zero,$a1
    15c4:	0005e45c 	0x5e45c
    15c8:	0002cbb0 	tge $zero,$v0
    15cc:	0001719c 	0x1719c
    15d0:	00087240 	sll $t6,$t0,0x9
    15d4:	00001938 	dsll $v1,$zero,0x4
    15d8:	0001a4aa 	0x1a4aa
    15dc:	00096e74 	teq $zero,$t1
    15e0:	000158d4 	0x158d4
    15e4:	00000bb8 	dsll $at,$zero,0xe
    15e8:	000116a8 	0x116a8
    15ec:	0004de94 	0x4de94
    15f0:	00031b6c 	0x31b6c
    15f4:	0000c350 	0xc350
    15f8:	0002640e 	0x2640e
    15fc:	0005bf80 	sll $s7,$a1,0x1e
    1600:	00040d69 	0x40d69
    1604:	000769a1 	0x769a1
    1608:	00029f34 	teq $zero,$v0
    160c:	00052780 	sll $a0,$a1,0x1e
    1610:	00022944 	0x22944
    1614:	00046e48 	0x46e48
    1618:	00077586 	0x77586
    161c:	0000a6fe 	dsrl32 $s4,$zero,0x1b
    1620:	0009068c 	syscall 0x241a
    1624:	000695a0 	0x695a0
    1628:	0001d198 	0x1d198
    162c:	0000abd8 	0xabd8
    1630:	00019ec0 	sll $s3,$at,0x1b
    1634:	000174f0 	tge $zero,$at
    1638:	000d693a 	dsrl $t5,$t5,0x4
    163c:	00022038 	dsll $a0,$v0,0x0
    1640:	00025e60 	0x25e60
    1644:	000660aa 	0x660aa
    1648:	0001087f 	dsra32 $at,$at,0x1
    164c:	00015005 	selsl $t2,$zero,$at
    1650:	0001e7ad 	0x1e7ad
    1654:	0000b528 	0xb528
    1658:	000296d0 	0x296d0
    165c:	0003199f 	0x3199f
    1660:	00048153 	0x48153
    1664:	0008202c 	dadd $a0,$zero,$t0
    1668:	00033ee2 	0x33ee2
    166c:	00049557 	0x49557
    1670:	00038c39 	0x38c39
    1674:	00060db0 	tge $zero,$a2
    1678:	0002c976 	tne $zero,$v0
    167c:	000ad370 	tge $zero,$t2
    1680:	0001178d 	break 0x1
    1684:	0006bad0 	0x6bad0
    1688:	00007146 	0x7146
    168c:	0000cc7c 	dsll32 $t9,$zero,0x11
    1690:	00026118 	0x26118
    1694:	000e5dd8 	0xe5dd8
    1698:	00003776 	tne $zero,$zero
    169c:	00034ee0 	0x34ee0
    16a0:	000510a9 	0x510a9
    16a4:	000799e8 	0x799e8
    16a8:	0005ce10 	0x5ce10
    16ac:	0007bb3c 	dsll32 $s7,$a3,0xc
    16b0:	0004c31c 	0x4c31c
    16b4:	0002fb50 	0x2fb50
    16b8:	0001e6b5 	0x1e6b5
    16bc:	0001a80e 	0x1a80e
    16c0:	0007c99f 	0x7c99f
    16c4:	00024ea8 	0x24ea8
    16c8:	000b71b8 	dsll $t6,$t3,0x6
    16cc:	000126a9 	0x126a9
    16d0:	000b0883 	sra $at,$t3,0x2
    16d4:	00033be0 	0x33be0
    16d8:	0003d527 	0x3d527
    16dc:	0001f730 	tge $zero,$at
Disassembly of section .reginfo:

000016e0 <.reginfo>:
    16e0:	a03f00fc 	sb $ra,252($at)
    16e4:	00000000 	nop
    16e8:	00000000 	nop
    16ec:	00000000 	nop
    16f0:	00000000 	nop
    16f4:	000096d0 	0x96d0
