
build/multiply/a.out:     file format elf32-bigmips

Disassembly of section .text:

00001000 <__start>:
    1000:	27bdffe8 	addiu $sp,$sp,-24
    1004:	afbf0010 	sw $ra,16($sp)
    1008:	0c000446 	jal 1118 <main>
    100c:	4082a800 	mtc0 $v0,$21
    1010:	08000404 	j 1010 <__start+10>
    1014:	00000000 	nop
    1018:	00000000 	nop
    101c:	00000000 	nop

00001020 <printInt>:
    1020:	40849000 	mtc0 $a0,$18
    1024:	03e00008 	jr $ra
    1028:	00000000 	nop

0000102c <printChar>:
    102c:	40849800 	mtc0 $a0,$19
    1030:	03e00008 	jr $ra
    1034:	00000000 	nop

00001038 <printStr>:
    1038:	27bdffe0 	addiu $sp,$sp,-32
    103c:	afb00010 	sw $s0,16($sp)
    1040:	00808021 	move $s0,$a0
    1044:	afb20018 	sw $s2,24($sp)
    1048:	24120018 	li $s2,24
    104c:	afb10014 	sw $s1,20($sp)
    1050:	241100ff 	li $s1,255
    1054:	afbf001c 	sw $ra,28($sp)
    1058:	8e020000 	lw $v0,0($s0)
    105c:	32030003 	andi $v1,$s0,0x3
    1060:	000318c0 	sll $v1,$v1,0x3
    1064:	02431823 	subu $v1,$s2,$v1
    1068:	00712004 	sllv $a0,$s1,$v1
    106c:	00441024 	and $v0,$v0,$a0
    1070:	00622006 	srlv $a0,$v0,$v1
    1074:	10800003 	beqz $a0,1084 <printStr+4c>
    1078:	0c00040b 	jal 102c <printChar>
    107c:	26100001 	addiu $s0,$s0,1
    1080:	08000416 	j 1058 <printStr+20>
    1084:	8fbf001c 	lw $ra,28($sp)
    1088:	8fb20018 	lw $s2,24($sp)
    108c:	8fb10014 	lw $s1,20($sp)
    1090:	8fb00010 	lw $s0,16($sp)
    1094:	27bd0020 	addiu $sp,$sp,32
    1098:	03e00008 	jr $ra
    109c:	00000000 	nop

000010a0 <getTime>:
    10a0:	40025000 	mfc0 $v0,$10
    10a4:	03e00008 	jr $ra

000010a8 <getInsts>:
    10a8:	40025800 	mfc0 $v0,$11
    10ac:	03e00008 	jr $ra

000010b0 <multiply>:
    10b0:	00003021 	move $a2,$zero
    10b4:	2403001f 	li $v1,31
    10b8:	30820001 	andi $v0,$a0,0x1
    10bc:	10400001 	beqz $v0,10c4 <multiply+14>
    10c0:	00c53021 	addu $a2,$a2,$a1
    10c4:	00042043 	sra $a0,$a0,0x1
    10c8:	00052840 	sll $a1,$a1,0x1
    10cc:	2463ffff 	addiu $v1,$v1,-1
    10d0:	0461fff9 	bgez $v1,10b8 <multiply+8>
    10d4:	00c01021 	move $v0,$a2
    10d8:	03e00008 	jr $ra
    10dc:	00000000 	nop

000010e0 <verify>:
    10e0:	00003821 	move $a3,$zero
    10e4:	1880000a 	blez $a0,1110 <verify+30>
    10e8:	8ca30000 	lw $v1,0($a1)
    10ec:	8cc20000 	lw $v0,0($a2)
    10f0:	10620002 	beq $v1,$v0,10fc <verify+1c>
    10f4:	00001021 	move $v0,$zero
    10f8:	03e00008 	jr $ra
    10fc:	24c60004 	addiu $a2,$a2,4
    1100:	24a50004 	addiu $a1,$a1,4
    1104:	24e70001 	addiu $a3,$a3,1
    1108:	00e4102a 	slt $v0,$a3,$a0
    110c:	1440fff6 	bnez $v0,10e8 <verify+8>
    1110:	24020001 	li $v0,1
    1114:	03e00008 	jr $ra

00001118 <main>:
    1118:	27bdfe10 	addiu $sp,$sp,-496
    111c:	afbf01e8 	sw $ra,488($sp)
    1120:	afb501e4 	sw $s5,484($sp)
    1124:	afb401e0 	sw $s4,480($sp)
    1128:	afb301dc 	sw $s3,476($sp)
    112c:	afb201d8 	sw $s2,472($sp)
    1130:	afb101d4 	sw $s1,468($sp)
    1134:	afb001d0 	sw $s0,464($sp)
    1138:	0c000428 	jal 10a0 <getTime>
    113c:	0040a021 	move $s4,$v0
    1140:	0c00042a 	jal 10a8 <getInsts>
    1144:	0040a821 	move $s5,$v0
    1148:	00009821 	move $s3,$zero
    114c:	27b20010 	addiu $s2,$sp,16
    1150:	3c110000 	lui $s1,0x0
    1154:	263113c0 	addiu $s1,$s1,5056
    1158:	3c100000 	lui $s0,0x0
    115c:	26101230 	addiu $s0,$s0,4656
    1160:	8e040000 	lw $a0,0($s0)
    1164:	8e250000 	lw $a1,0($s1)
    1168:	26310004 	addiu $s1,$s1,4
    116c:	26100004 	addiu $s0,$s0,4
    1170:	26730001 	addiu $s3,$s3,1
    1174:	0c00042c 	jal 10b0 <multiply>
    1178:	ae420000 	sw $v0,0($s2)
    117c:	26520004 	addiu $s2,$s2,4
    1180:	2a620064 	slti $v0,$s3,100
    1184:	1440fff6 	bnez $v0,1160 <main+48>
    1188:	0c000428 	jal 10a0 <getTime>
    118c:	0054a023 	subu $s4,$v0,$s4
    1190:	0c00042a 	jal 10a8 <getInsts>
    1194:	0055a823 	subu $s5,$v0,$s5
    1198:	3c040000 	lui $a0,0x0
    119c:	24841210 	addiu $a0,$a0,4624
    11a0:	0c00040e 	jal 1038 <printStr>
    11a4:	02802021 	move $a0,$s4
    11a8:	0c000408 	jal 1020 <printInt>
    11ac:	2404000a 	li $a0,10
    11b0:	0c00040b 	jal 102c <printChar>
    11b4:	3c040000 	lui $a0,0x0
    11b8:	2484121c 	addiu $a0,$a0,4636
    11bc:	0c00040e 	jal 1038 <printStr>
    11c0:	02a02021 	move $a0,$s5
    11c4:	0c000408 	jal 1020 <printInt>
    11c8:	2404000a 	li $a0,10
    11cc:	0c00040b 	jal 102c <printChar>
    11d0:	24040064 	li $a0,100
    11d4:	27a50010 	addiu $a1,$sp,16
    11d8:	3c060000 	lui $a2,0x0
    11dc:	24c61550 	addiu $a2,$a2,5456
    11e0:	0c000438 	jal 10e0 <verify>
    11e4:	8fbf01e8 	lw $ra,488($sp)
    11e8:	8fb501e4 	lw $s5,484($sp)
    11ec:	8fb401e0 	lw $s4,480($sp)
    11f0:	8fb301dc 	lw $s3,476($sp)
    11f4:	8fb201d8 	lw $s2,472($sp)
    11f8:	8fb101d4 	lw $s1,468($sp)
    11fc:	8fb001d0 	lw $s0,464($sp)
    1200:	2c420001 	sltiu $v0,$v0,1
    1204:	27bd01f0 	addiu $sp,$sp,496
    1208:	03e00008 	jr $ra
    120c:	00000000 	nop
Disassembly of section .aibpointers: