
build/smipsv2_sllv.S/a.out:     file format elf32-bigmips

Disassembly of section .text:

00001000 <__start>:
    1000:	27bdffe8 	addiu $sp,$sp,-24
    1004:	afbf0010 	sw $ra,16($sp)
    1008:	0c00042c 	jal 10b0 <main>
    100c:	4082a800 	mtc0 $v0,$21
    1010:	08000404 	j 1010 <__start+10>
    1014:	00000000 	nop
    1018:	00000000 	nop
    101c:	00000000 	nop

00001020 <printInt>:
    1020:	40849000 	mtc0 $a0,$18
    1024:	03e00008 	jr $ra
    1028:	00000000 	nop

0000102c <printChar>:
    102c:	40849800 	mtc0 $a0,$19
    1030:	03e00008 	jr $ra
    1034:	00000000 	nop

00001038 <printStr>:
    1038:	27bdffe0 	addiu $sp,$sp,-32
    103c:	afb00010 	sw $s0,16($sp)
    1040:	00808021 	move $s0,$a0
    1044:	afb20018 	sw $s2,24($sp)
    1048:	24120018 	li $s2,24
    104c:	afb10014 	sw $s1,20($sp)
    1050:	241100ff 	li $s1,255
    1054:	afbf001c 	sw $ra,28($sp)
    1058:	8e020000 	lw $v0,0($s0)
    105c:	32030003 	andi $v1,$s0,0x3
    1060:	000318c0 	sll $v1,$v1,0x3
    1064:	02431823 	subu $v1,$s2,$v1
    1068:	00712004 	sllv $a0,$s1,$v1
    106c:	00441024 	and $v0,$v0,$a0
    1070:	00622006 	srlv $a0,$v0,$v1
    1074:	10800003 	beqz $a0,1084 <printStr+4c>
    1078:	0c00040b 	jal 102c <printChar>
    107c:	26100001 	addiu $s0,$s0,1
    1080:	08000416 	j 1058 <printStr+20>
    1084:	8fbf001c 	lw $ra,28($sp)
    1088:	8fb20018 	lw $s2,24($sp)
    108c:	8fb10014 	lw $s1,20($sp)
    1090:	8fb00010 	lw $s0,16($sp)
    1094:	27bd0020 	addiu $sp,$sp,32
    1098:	03e00008 	jr $ra
    109c:	00000000 	nop

000010a0 <getTime>:
    10a0:	40025000 	mfc0 $v0,$10
    10a4:	03e00008 	jr $ra

000010a8 <getInsts>:
    10a8:	40025800 	mfc0 $v0,$11
    10ac:	03e00008 	jr $ra

000010b0 <main>:
    10b0:	24020001 	li $v0,1
    10b4:	24030000 	li $v1,0
    10b8:	00622004 	sllv $a0,$v0,$v1
    10bc:	241d0001 	li $sp,1
    10c0:	241e0002 	li $s8,2
    10c4:	149d0142 	bne $a0,$sp,15d0 <fail>

000010c8 <test_3>:
    10c8:	24020001 	li $v0,1
    10cc:	24030001 	li $v1,1
    10d0:	00622004 	sllv $a0,$v0,$v1
    10d4:	241d0002 	li $sp,2
    10d8:	241e0003 	li $s8,3
    10dc:	149d013c 	bne $a0,$sp,15d0 <fail>

000010e0 <test_4>:
    10e0:	24020001 	li $v0,1
    10e4:	24030007 	li $v1,7
    10e8:	00622004 	sllv $a0,$v0,$v1
    10ec:	241d0080 	li $sp,128
    10f0:	241e0004 	li $s8,4
    10f4:	149d0136 	bne $a0,$sp,15d0 <fail>

000010f8 <test_5>:
    10f8:	24020001 	li $v0,1
    10fc:	2403000e 	li $v1,14
    1100:	00622004 	sllv $a0,$v0,$v1
    1104:	241d4000 	li $sp,16384
    1108:	241e0005 	li $s8,5
    110c:	149d0130 	bne $a0,$sp,15d0 <fail>

00001110 <test_6>:
    1110:	24020001 	li $v0,1
    1114:	2403001f 	li $v1,31
    1118:	00622004 	sllv $a0,$v0,$v1
    111c:	3c1d8000 	lui $sp,0x8000
    1120:	241e0006 	li $s8,6
    1124:	149d012a 	bne $a0,$sp,15d0 <fail>

00001128 <test_7>:
    1128:	2402ffff 	li $v0,-1
    112c:	24030000 	li $v1,0
    1130:	00622004 	sllv $a0,$v0,$v1
    1134:	241dffff 	li $sp,-1
    1138:	241e0007 	li $s8,7
    113c:	149d0124 	bne $a0,$sp,15d0 <fail>

00001140 <test_8>:
    1140:	2402ffff 	li $v0,-1
    1144:	24030001 	li $v1,1
    1148:	00622004 	sllv $a0,$v0,$v1
    114c:	241dfffe 	li $sp,-2
    1150:	241e0008 	li $s8,8
    1154:	149d011e 	bne $a0,$sp,15d0 <fail>

00001158 <test_9>:
    1158:	2402ffff 	li $v0,-1
    115c:	24030007 	li $v1,7
    1160:	00622004 	sllv $a0,$v0,$v1
    1164:	241dff80 	li $sp,-128
    1168:	241e0009 	li $s8,9
    116c:	149d0118 	bne $a0,$sp,15d0 <fail>

00001170 <test_10>:
    1170:	2402ffff 	li $v0,-1
    1174:	2403000e 	li $v1,14
    1178:	00622004 	sllv $a0,$v0,$v1
    117c:	241dc000 	li $sp,-16384
    1180:	241e000a 	li $s8,10
    1184:	149d0112 	bne $a0,$sp,15d0 <fail>

00001188 <test_11>:
    1188:	2402ffff 	li $v0,-1
    118c:	2403001f 	li $v1,31
    1190:	00622004 	sllv $a0,$v0,$v1
    1194:	3c1d8000 	lui $sp,0x8000
    1198:	241e000b 	li $s8,11
    119c:	149d010c 	bne $a0,$sp,15d0 <fail>

000011a0 <test_12>:
    11a0:	3c022121 	lui $v0,0x2121
    11a4:	34422121 	ori $v0,$v0,0x2121
    11a8:	24030000 	li $v1,0
    11ac:	00622004 	sllv $a0,$v0,$v1
    11b0:	3c1d2121 	lui $sp,0x2121
    11b4:	37bd2121 	ori $sp,$sp,0x2121
    11b8:	241e000c 	li $s8,12
    11bc:	149d0104 	bne $a0,$sp,15d0 <fail>

000011c0 <test_13>:
    11c0:	3c022121 	lui $v0,0x2121
    11c4:	34422121 	ori $v0,$v0,0x2121
    11c8:	24030001 	li $v1,1
    11cc:	00622004 	sllv $a0,$v0,$v1
    11d0:	3c1d4242 	lui $sp,0x4242
    11d4:	37bd4242 	ori $sp,$sp,0x4242
    11d8:	241e000d 	li $s8,13
    11dc:	149d00fc 	bne $a0,$sp,15d0 <fail>

000011e0 <test_14>:
    11e0:	3c022121 	lui $v0,0x2121
    11e4:	34422121 	ori $v0,$v0,0x2121
    11e8:	24030007 	li $v1,7
    11ec:	00622004 	sllv $a0,$v0,$v1
    11f0:	3c1d9090 	lui $sp,0x9090
    11f4:	37bd9080 	ori $sp,$sp,0x9080
    11f8:	241e000e 	li $s8,14
    11fc:	149d00f4 	bne $a0,$sp,15d0 <fail>

00001200 <test_15>:
    1200:	3c022121 	lui $v0,0x2121
    1204:	34422121 	ori $v0,$v0,0x2121
    1208:	2403000e 	li $v1,14
    120c:	00622004 	sllv $a0,$v0,$v1
    1210:	3c1d4848 	lui $sp,0x4848
    1214:	37bd4000 	ori $sp,$sp,0x4000
    1218:	241e000f 	li $s8,15
    121c:	149d00ec 	bne $a0,$sp,15d0 <fail>

00001220 <test_16>:
    1220:	3c022121 	lui $v0,0x2121
    1224:	34422121 	ori $v0,$v0,0x2121
    1228:	2403001f 	li $v1,31
    122c:	00622004 	sllv $a0,$v0,$v1
    1230:	3c1d8000 	lui $sp,0x8000
    1234:	241e0010 	li $s8,16
    1238:	149d00e5 	bne $a0,$sp,15d0 <fail>

0000123c <test_17>:
    123c:	3c022121 	lui $v0,0x2121
    1240:	34422121 	ori $v0,$v0,0x2121
    1244:	2403ffe0 	li $v1,-32
    1248:	00622004 	sllv $a0,$v0,$v1
    124c:	3c1d2121 	lui $sp,0x2121
    1250:	37bd2121 	ori $sp,$sp,0x2121
    1254:	241e0011 	li $s8,17
    1258:	149d00dd 	bne $a0,$sp,15d0 <fail>

0000125c <test_18>:
    125c:	3c022121 	lui $v0,0x2121
    1260:	34422121 	ori $v0,$v0,0x2121
    1264:	2403ffe1 	li $v1,-31
    1268:	00622004 	sllv $a0,$v0,$v1
    126c:	3c1d4242 	lui $sp,0x4242
    1270:	37bd4242 	ori $sp,$sp,0x4242
    1274:	241e0012 	li $s8,18
    1278:	149d00d5 	bne $a0,$sp,15d0 <fail>

0000127c <test_19>:
    127c:	3c022121 	lui $v0,0x2121
    1280:	34422121 	ori $v0,$v0,0x2121
    1284:	2403ffe7 	li $v1,-25
    1288:	00622004 	sllv $a0,$v0,$v1
    128c:	3c1d9090 	lui $sp,0x9090
    1290:	37bd9080 	ori $sp,$sp,0x9080
    1294:	241e0013 	li $s8,19
    1298:	149d00cd 	bne $a0,$sp,15d0 <fail>

0000129c <test_20>:
    129c:	3c022121 	lui $v0,0x2121
    12a0:	34422121 	ori $v0,$v0,0x2121
    12a4:	2403ffee 	li $v1,-18
    12a8:	00622004 	sllv $a0,$v0,$v1
    12ac:	3c1d4848 	lui $sp,0x4848
    12b0:	37bd4000 	ori $sp,$sp,0x4000
    12b4:	241e0014 	li $s8,20
    12b8:	149d00c5 	bne $a0,$sp,15d0 <fail>

000012bc <test_21>:
    12bc:	3c022121 	lui $v0,0x2121
    12c0:	34422121 	ori $v0,$v0,0x2121
    12c4:	2403ffff 	li $v1,-1
    12c8:	00622004 	sllv $a0,$v0,$v1
    12cc:	3c1d8000 	lui $sp,0x8000
    12d0:	241e0015 	li $s8,21
    12d4:	149d00be 	bne $a0,$sp,15d0 <fail>

000012d8 <test_22>:
    12d8:	24020001 	li $v0,1
    12dc:	24030007 	li $v1,7
    12e0:	00621004 	sllv $v0,$v0,$v1
    12e4:	241d0080 	li $sp,128
    12e8:	241e0016 	li $s8,22
    12ec:	145d00b8 	bne $v0,$sp,15d0 <fail>

000012f0 <test_23>:
    12f0:	24020001 	li $v0,1
    12f4:	2403000e 	li $v1,14
    12f8:	00621804 	sllv $v1,$v0,$v1
    12fc:	241d4000 	li $sp,16384
    1300:	241e0017 	li $s8,23
    1304:	147d00b2 	bne $v1,$sp,15d0 <fail>

00001308 <test_24>:
    1308:	24020003 	li $v0,3
    130c:	00421004 	sllv $v0,$v0,$v0
    1310:	241d0018 	li $sp,24
    1314:	241e0018 	li $s8,24
    1318:	145d00ad 	bne $v0,$sp,15d0 <fail>

0000131c <test_25>:
    131c:	24050000 	li $a1,0
    1320:	24020001 	li $v0,1
    1324:	24030007 	li $v1,7
    1328:	00622004 	sllv $a0,$v0,$v1
    132c:	24870000 	addiu $a3,$a0,0
    1330:	24a50001 	addiu $a1,$a1,1
    1334:	24060002 	li $a2,2
    1338:	14a6fff9 	bne $a1,$a2,1320 <test_25+4>
    133c:	241d0080 	li $sp,128
    1340:	241e0019 	li $s8,25
    1344:	14fd00a2 	bne $a3,$sp,15d0 <fail>

00001348 <test_26>:
    1348:	24050000 	li $a1,0
    134c:	24020001 	li $v0,1
    1350:	2403000e 	li $v1,14
    1354:	00622004 	sllv $a0,$v0,$v1
    1358:	00000000 	nop
    135c:	24870000 	addiu $a3,$a0,0
    1360:	24a50001 	addiu $a1,$a1,1
    1364:	24060002 	li $a2,2
    1368:	14a6fff8 	bne $a1,$a2,134c <test_26+4>
    136c:	241d4000 	li $sp,16384
    1370:	241e001a 	li $s8,26
    1374:	14fd0096 	bne $a3,$sp,15d0 <fail>

00001378 <test_27>:
    1378:	24050000 	li $a1,0
    137c:	24020001 	li $v0,1
    1380:	2403001f 	li $v1,31
    1384:	00622004 	sllv $a0,$v0,$v1
    1388:	00000000 	nop
    138c:	00000000 	nop
    1390:	24870000 	addiu $a3,$a0,0
    1394:	24a50001 	addiu $a1,$a1,1
    1398:	24060002 	li $a2,2
    139c:	14a6fff7 	bne $a1,$a2,137c <test_27+4>
    13a0:	3c1d8000 	lui $sp,0x8000
    13a4:	241e001b 	li $s8,27
    13a8:	14fd0089 	bne $a3,$sp,15d0 <fail>

000013ac <test_28>:
    13ac:	24050000 	li $a1,0
    13b0:	24020001 	li $v0,1
    13b4:	24030007 	li $v1,7
    13b8:	00622004 	sllv $a0,$v0,$v1
    13bc:	24a50001 	addiu $a1,$a1,1
    13c0:	24060002 	li $a2,2
    13c4:	14a6fffa 	bne $a1,$a2,13b0 <test_28+4>
    13c8:	241d0080 	li $sp,128
    13cc:	241e001c 	li $s8,28
    13d0:	149d007f 	bne $a0,$sp,15d0 <fail>

000013d4 <test_29>:
    13d4:	24050000 	li $a1,0
    13d8:	24020001 	li $v0,1
    13dc:	2403000e 	li $v1,14
    13e0:	00000000 	nop
    13e4:	00622004 	sllv $a0,$v0,$v1
    13e8:	24a50001 	addiu $a1,$a1,1
    13ec:	24060002 	li $a2,2
    13f0:	14a6fff9 	bne $a1,$a2,13d8 <test_29+4>
    13f4:	241d4000 	li $sp,16384
    13f8:	241e001d 	li $s8,29
    13fc:	149d0074 	bne $a0,$sp,15d0 <fail>

00001400 <test_30>:
    1400:	24050000 	li $a1,0
    1404:	24020001 	li $v0,1
    1408:	2403001f 	li $v1,31
    140c:	00000000 	nop
    1410:	00000000 	nop
    1414:	00622004 	sllv $a0,$v0,$v1
    1418:	24a50001 	addiu $a1,$a1,1
    141c:	24060002 	li $a2,2
    1420:	14a6fff8 	bne $a1,$a2,1404 <test_30+4>
    1424:	3c1d8000 	lui $sp,0x8000
    1428:	241e001e 	li $s8,30
    142c:	149d0068 	bne $a0,$sp,15d0 <fail>

00001430 <test_31>:
    1430:	24050000 	li $a1,0
    1434:	24020001 	li $v0,1
    1438:	00000000 	nop
    143c:	24030007 	li $v1,7
    1440:	00622004 	sllv $a0,$v0,$v1
    1444:	24a50001 	addiu $a1,$a1,1
    1448:	24060002 	li $a2,2
    144c:	14a6fff9 	bne $a1,$a2,1434 <test_31+4>
    1450:	241d0080 	li $sp,128
    1454:	241e001f 	li $s8,31
    1458:	149d005d 	bne $a0,$sp,15d0 <fail>

0000145c <test_32>:
    145c:	24050000 	li $a1,0
    1460:	24020001 	li $v0,1
    1464:	00000000 	nop
    1468:	2403000e 	li $v1,14
    146c:	00000000 	nop
    1470:	00622004 	sllv $a0,$v0,$v1
    1474:	24a50001 	addiu $a1,$a1,1
    1478:	24060002 	li $a2,2
    147c:	14a6fff8 	bne $a1,$a2,1460 <test_32+4>
    1480:	241d4000 	li $sp,16384
    1484:	241e0020 	li $s8,32
    1488:	149d0051 	bne $a0,$sp,15d0 <fail>

0000148c <test_33>:
    148c:	24050000 	li $a1,0
    1490:	24020001 	li $v0,1
    1494:	00000000 	nop
    1498:	00000000 	nop
    149c:	2403001f 	li $v1,31
    14a0:	00622004 	sllv $a0,$v0,$v1
    14a4:	24a50001 	addiu $a1,$a1,1
    14a8:	24060002 	li $a2,2
    14ac:	14a6fff8 	bne $a1,$a2,1490 <test_33+4>
    14b0:	3c1d8000 	lui $sp,0x8000
    14b4:	241e0021 	li $s8,33
    14b8:	149d0045 	bne $a0,$sp,15d0 <fail>

000014bc <test_34>:
    14bc:	24050000 	li $a1,0
    14c0:	24030007 	li $v1,7
    14c4:	24020001 	li $v0,1
    14c8:	00622004 	sllv $a0,$v0,$v1
    14cc:	24a50001 	addiu $a1,$a1,1
    14d0:	24060002 	li $a2,2
    14d4:	14a6fffa 	bne $a1,$a2,14c0 <test_34+4>
    14d8:	241d0080 	li $sp,128
    14dc:	241e0022 	li $s8,34
    14e0:	149d003b 	bne $a0,$sp,15d0 <fail>

000014e4 <test_35>:
    14e4:	24050000 	li $a1,0
    14e8:	2403000e 	li $v1,14
    14ec:	24020001 	li $v0,1
    14f0:	00000000 	nop
    14f4:	00622004 	sllv $a0,$v0,$v1
    14f8:	24a50001 	addiu $a1,$a1,1
    14fc:	24060002 	li $a2,2
    1500:	14a6fff9 	bne $a1,$a2,14e8 <test_35+4>
    1504:	241d4000 	li $sp,16384
    1508:	241e0023 	li $s8,35
    150c:	149d0030 	bne $a0,$sp,15d0 <fail>

00001510 <test_36>:
    1510:	24050000 	li $a1,0
    1514:	2403001f 	li $v1,31
    1518:	24020001 	li $v0,1
    151c:	00000000 	nop
    1520:	00000000 	nop
    1524:	00622004 	sllv $a0,$v0,$v1
    1528:	24a50001 	addiu $a1,$a1,1
    152c:	24060002 	li $a2,2
    1530:	14a6fff8 	bne $a1,$a2,1514 <test_36+4>
    1534:	3c1d8000 	lui $sp,0x8000
    1538:	241e0024 	li $s8,36
    153c:	149d0024 	bne $a0,$sp,15d0 <fail>

00001540 <test_37>:
    1540:	24050000 	li $a1,0
    1544:	24030007 	li $v1,7
    1548:	00000000 	nop
    154c:	24020001 	li $v0,1
    1550:	00622004 	sllv $a0,$v0,$v1
    1554:	24a50001 	addiu $a1,$a1,1
    1558:	24060002 	li $a2,2
    155c:	14a6fff9 	bne $a1,$a2,1544 <test_37+4>
    1560:	241d0080 	li $sp,128
    1564:	241e0025 	li $s8,37
    1568:	149d0019 	bne $a0,$sp,15d0 <fail>

0000156c <test_38>:
    156c:	24050000 	li $a1,0
    1570:	2403000e 	li $v1,14
    1574:	00000000 	nop
    1578:	24020001 	li $v0,1
    157c:	00000000 	nop
    1580:	00622004 	sllv $a0,$v0,$v1
    1584:	24a50001 	addiu $a1,$a1,1
    1588:	24060002 	li $a2,2
    158c:	14a6fff8 	bne $a1,$a2,1570 <test_38+4>
    1590:	241d4000 	li $sp,16384
    1594:	241e0026 	li $s8,38
    1598:	149d000d 	bne $a0,$sp,15d0 <fail>

0000159c <test_39>:
    159c:	24050000 	li $a1,0
    15a0:	2403001f 	li $v1,31
    15a4:	00000000 	nop
    15a8:	00000000 	nop
    15ac:	24020001 	li $v0,1
    15b0:	00622004 	sllv $a0,$v0,$v1
    15b4:	24a50001 	addiu $a1,$a1,1
    15b8:	24060002 	li $a2,2
    15bc:	14a6fff8 	bne $a1,$a2,15a0 <test_39+4>
    15c0:	3c1d8000 	lui $sp,0x8000
    15c4:	241e0027 	li $s8,39
    15c8:	149d0001 	bne $a0,$sp,15d0 <fail>
    15cc:	141e0003 	bne $zero,$s8,15dc <pass>

000015d0 <fail>:
    15d0:	409ea800 	mtc0 $s8,$21
    15d4:	1000ffff 	b 15d4 <fail+4>
    15d8:	00000000 	nop

000015dc <pass>:
    15dc:	4080a800 	mtc0 $zero,$21
    15e0:	1000ffff 	b 15e0 <pass+4>
    15e4:	00000000 	nop
    15e8:	00000000 	nop
    15ec:	00000000 	nop
Disassembly of section .aibpointers: